Archive member included to satisfy reference by file (symbol)

../../../../lib/ksdk_platform_lib/armgcc/KL03Z4/release/libksdk_platform.a(fsl_os_abstraction_bm.c.obj)
                              CMakeFiles/Warp.dir/home/students/rr632/Warp-firmware/build/ksdk1.1/work/demos/Warp/src/script.c.obj (OSA_TimeDelay)
../../../../lib/ksdk_platform_lib/armgcc/KL03Z4/release/libksdk_platform.a(fsl_clock_manager.c.obj)
                              CMakeFiles/Warp.dir/home/students/rr632/Warp-firmware/build/ksdk1.1/work/demos/Warp/src/script.c.obj (CLOCK_SYS_Init)
../../../../lib/ksdk_platform_lib/armgcc/KL03Z4/release/libksdk_platform.a(fsl_clock_MKL03Z4.c.obj)
                              ../../../../lib/ksdk_platform_lib/armgcc/KL03Z4/release/libksdk_platform.a(fsl_clock_manager.c.obj) (CLOCK_SYS_SetConfiguration)
../../../../lib/ksdk_platform_lib/armgcc/KL03Z4/release/libksdk_platform.a(fsl_interrupt_manager.c.obj)
                              ../../../../lib/ksdk_platform_lib/armgcc/KL03Z4/release/libksdk_platform.a(fsl_os_abstraction_bm.c.obj) (INT_SYS_InstallHandler)
../../../../lib/ksdk_platform_lib/armgcc/KL03Z4/release/libksdk_platform.a(fsl_power_manager.c.obj)
                              CMakeFiles/Warp.dir/home/students/rr632/Warp-firmware/build/ksdk1.1/work/demos/Warp/src/script.c.obj (POWER_SYS_Init)
../../../../lib/ksdk_platform_lib/armgcc/KL03Z4/release/libksdk_platform.a(fsl_gpio_driver.c.obj)
                              ../../../../lib/ksdk_platform_lib/armgcc/KL03Z4/release/libksdk_platform.a(fsl_power_manager.c.obj) (GPIO_DRV_InputPinInit)
../../../../lib/ksdk_platform_lib/armgcc/KL03Z4/release/libksdk_platform.a(fsl_i2c_shared_function.c.obj)
                              CMakeFiles/Warp.dir/home/students/rr632/Warp-firmware/build/ksdk1.1/work/platform/drivers/src/i2c/fsl_i2c_irq.c.obj (I2C_DRV_IRQHandler)
../../../../lib/ksdk_platform_lib/armgcc/KL03Z4/release/libksdk_platform.a(fsl_i2c_common.c.obj)
                              ../../../../lib/ksdk_platform_lib/armgcc/KL03Z4/release/libksdk_platform.a(fsl_i2c_shared_function.c.obj) (g_i2cBaseAddr)
../../../../lib/ksdk_platform_lib/armgcc/KL03Z4/release/libksdk_platform.a(fsl_i2c_master_driver.c.obj)
                              CMakeFiles/Warp.dir/home/students/rr632/Warp-firmware/build/ksdk1.1/work/demos/Warp/src/script.c.obj (I2C_DRV_MasterInit)
../../../../lib/ksdk_platform_lib/armgcc/KL03Z4/release/libksdk_platform.a(fsl_i2c_slave_driver.c.obj)
                              ../../../../lib/ksdk_platform_lib/armgcc/KL03Z4/release/libksdk_platform.a(fsl_i2c_shared_function.c.obj) (I2C_DRV_SlaveIRQHandler)
../../../../lib/ksdk_platform_lib/armgcc/KL03Z4/release/libksdk_platform.a(fsl_llwu_hal.c.obj)
                              CMakeFiles/Warp.dir/home/students/rr632/Warp-firmware/build/ksdk1.1/work/demos/Warp/src/powermodes.c.obj (LLWU_HAL_SetExternalInputPinMode)
../../../../lib/ksdk_platform_lib/armgcc/KL03Z4/release/libksdk_platform.a(fsl_lpuart_driver.c.obj)
                              CMakeFiles/Warp.dir/home/students/rr632/Warp-firmware/build/ksdk1.1/work/demos/Warp/src/script.c.obj (LPUART_DRV_Init)
../../../../lib/ksdk_platform_lib/armgcc/KL03Z4/release/libksdk_platform.a(fsl_lpuart_common.c.obj)
                              ../../../../lib/ksdk_platform_lib/armgcc/KL03Z4/release/libksdk_platform.a(fsl_lpuart_driver.c.obj) (g_lpuartRxTxIrqId)
../../../../lib/ksdk_platform_lib/armgcc/KL03Z4/release/libksdk_platform.a(fsl_mcglite_hal.c.obj)
                              ../../../../lib/ksdk_platform_lib/armgcc/KL03Z4/release/libksdk_platform.a(fsl_clock_MKL03Z4.c.obj) (CLOCK_HAL_GetInternalRefClk)
../../../../lib/ksdk_platform_lib/armgcc/KL03Z4/release/libksdk_platform.a(fsl_mcglite_hal_modes.c.obj)
                              ../../../../lib/ksdk_platform_lib/armgcc/KL03Z4/release/libksdk_platform.a(fsl_power_manager.c.obj) (CLOCK_HAL_GetMode)
../../../../lib/ksdk_platform_lib/armgcc/KL03Z4/release/libksdk_platform.a(fsl_osc_hal.c.obj)
                              ../../../../lib/ksdk_platform_lib/armgcc/KL03Z4/release/libksdk_platform.a(fsl_clock_MKL03Z4.c.obj) (OSC_HAL_SetExternalRefClkCmd)
../../../../lib/ksdk_platform_lib/armgcc/KL03Z4/release/libksdk_platform.a(fsl_rtc_hal.c.obj)
                              CMakeFiles/Warp.dir/home/students/rr632/Warp-firmware/build/ksdk1.1/work/demos/Warp/src/powermodes.c.obj (RTC_HAL_ConvertSecsToDatetime)
../../../../lib/ksdk_platform_lib/armgcc/KL03Z4/release/libksdk_platform.a(fsl_rtc_driver.c.obj)
                              CMakeFiles/Warp.dir/home/students/rr632/Warp-firmware/build/ksdk1.1/work/demos/Warp/src/script.c.obj (RTC_DRV_Init)
../../../../lib/ksdk_platform_lib/armgcc/KL03Z4/release/libksdk_platform.a(fsl_rtc_common.c.obj)
                              ../../../../lib/ksdk_platform_lib/armgcc/KL03Z4/release/libksdk_platform.a(fsl_rtc_driver.c.obj) (g_rtcSecondsIrqId)
../../../../lib/ksdk_platform_lib/armgcc/KL03Z4/release/libksdk_platform.a(fsl_sim_hal_MKL03Z4.c.obj)
                              ../../../../lib/ksdk_platform_lib/armgcc/KL03Z4/release/libksdk_platform.a(fsl_clock_MKL03Z4.c.obj) (CLOCK_HAL_SetOutDiv)
../../../../lib/ksdk_platform_lib/armgcc/KL03Z4/release/libksdk_platform.a(fsl_spi_shared_function.c.obj)
                              CMakeFiles/Warp.dir/home/students/rr632/Warp-firmware/build/ksdk1.1/work/platform/drivers/src/spi/fsl_spi_irq.c.obj (SPI_DRV_IRQHandler)
../../../../lib/ksdk_platform_lib/armgcc/KL03Z4/release/libksdk_platform.a(fsl_spi_master_driver.c.obj)
                              CMakeFiles/Warp.dir/home/students/rr632/Warp-firmware/build/ksdk1.1/work/demos/Warp/src/script.c.obj (SPI_DRV_MasterInit)
../../../../lib/ksdk_platform_lib/armgcc/KL03Z4/release/libksdk_platform.a(fsl_spi_slave_driver.c.obj)
                              ../../../../lib/ksdk_platform_lib/armgcc/KL03Z4/release/libksdk_platform.a(fsl_spi_shared_function.c.obj) (SPI_DRV_SlaveIRQHandler)
../../../../lib/ksdk_platform_lib/armgcc/KL03Z4/release/libksdk_platform.a(fsl_spi_common.c.obj)
                              ../../../../lib/ksdk_platform_lib/armgcc/KL03Z4/release/libksdk_platform.a(fsl_spi_master_driver.c.obj) (g_spiIrqId)
../../../../lib/ksdk_platform_lib/armgcc/KL03Z4/release/libksdk_platform.a(fsl_smc_hal.c.obj)
                              ../../../../lib/ksdk_platform_lib/armgcc/KL03Z4/release/libksdk_platform.a(fsl_power_manager.c.obj) (SMC_HAL_GetProtectionMode)
../../../../lib/ksdk_platform_lib/armgcc/KL03Z4/release/libksdk_platform.a(fsl_rcm_hal.c.obj)
                              ../../../../lib/ksdk_platform_lib/armgcc/KL03Z4/release/libksdk_platform.a(fsl_power_manager.c.obj) (RCM_HAL_GetSrcStatusCmd)
../../../../lib/ksdk_platform_lib/armgcc/KL03Z4/release/libksdk_platform.a(fsl_clock_manager_common.c.obj)
                              ../../../../lib/ksdk_platform_lib/armgcc/KL03Z4/release/libksdk_platform.a(fsl_clock_MKL03Z4.c.obj) (g_oscBaseAddr)
../../../../lib/ksdk_platform_lib/armgcc/KL03Z4/release/libksdk_platform.a(fsl_gpio_hal.c.obj)
                              ../../../../lib/ksdk_platform_lib/armgcc/KL03Z4/release/libksdk_platform.a(fsl_gpio_driver.c.obj) (GPIO_HAL_SetPinDir)
../../../../lib/ksdk_platform_lib/armgcc/KL03Z4/release/libksdk_platform.a(fsl_gpio_common.c.obj)
                              ../../../../lib/ksdk_platform_lib/armgcc/KL03Z4/release/libksdk_platform.a(fsl_gpio_driver.c.obj) (g_portIrqId)
../../../../lib/ksdk_platform_lib/armgcc/KL03Z4/release/libksdk_platform.a(fsl_i2c_hal.c.obj)
                              ../../../../lib/ksdk_platform_lib/armgcc/KL03Z4/release/libksdk_platform.a(fsl_i2c_master_driver.c.obj) (I2C_HAL_Init)
../../../../lib/ksdk_platform_lib/armgcc/KL03Z4/release/libksdk_platform.a(fsl_lpuart_hal.c.obj)
                              ../../../../lib/ksdk_platform_lib/armgcc/KL03Z4/release/libksdk_platform.a(fsl_lpuart_driver.c.obj) (LPUART_HAL_Init)
../../../../lib/ksdk_platform_lib/armgcc/KL03Z4/release/libksdk_platform.a(fsl_spi_hal.c.obj)
                              ../../../../lib/ksdk_platform_lib/armgcc/KL03Z4/release/libksdk_platform.a(fsl_spi_master_driver.c.obj) (SPI_HAL_Init)
/usr/lib/gcc/arm-none-eabi/9.2.1/../../../arm-none-eabi/lib/thumb/v6-m/nofp/libm.a(lib_a-s_round.o)
                              CMakeFiles/Warp.dir/home/students/rr632/Warp-firmware/build/ksdk1.1/work/demos/Warp/src/devMMA8451Q.c.obj (round)
/usr/lib/gcc/arm-none-eabi/9.2.1/../../../arm-none-eabi/lib/thumb/v6-m/nofp/libm.a(lib_a-w_sqrt.o)
                              CMakeFiles/Warp.dir/home/students/rr632/Warp-firmware/build/ksdk1.1/work/demos/Warp/src/devMMA8451Q.c.obj (sqrt)
/usr/lib/gcc/arm-none-eabi/9.2.1/../../../arm-none-eabi/lib/thumb/v6-m/nofp/libm.a(lib_a-e_sqrt.o)
                              /usr/lib/gcc/arm-none-eabi/9.2.1/../../../arm-none-eabi/lib/thumb/v6-m/nofp/libm.a(lib_a-w_sqrt.o) (__ieee754_sqrt)
/usr/lib/gcc/arm-none-eabi/9.2.1/../../../arm-none-eabi/lib/thumb/v6-m/nofp/libm.a(lib_a-s_lib_ver.o)
                              /usr/lib/gcc/arm-none-eabi/9.2.1/../../../arm-none-eabi/lib/thumb/v6-m/nofp/libm.a(lib_a-w_sqrt.o) (__fdlib_version)
/usr/lib/gcc/arm-none-eabi/9.2.1/../../../arm-none-eabi/lib/thumb/v6-m/nofp/libc_nano.a(lib_a-abs.o)
                              CMakeFiles/Warp.dir/home/students/rr632/Warp-firmware/build/ksdk1.1/work/demos/Warp/src/devMMA8451Q.c.obj (abs)
/usr/lib/gcc/arm-none-eabi/9.2.1/../../../arm-none-eabi/lib/thumb/v6-m/nofp/libc_nano.a(lib_a-atexit.o)
                              /usr/lib/gcc/arm-none-eabi/9.2.1/../../../arm-none-eabi/lib/thumb/v6-m/nofp/crt0.o (atexit)
/usr/lib/gcc/arm-none-eabi/9.2.1/../../../arm-none-eabi/lib/thumb/v6-m/nofp/libc_nano.a(lib_a-bzero.o)
                              CMakeFiles/Warp.dir/home/students/rr632/Warp-firmware/build/ksdk1.1/work/demos/Warp/src/SEGGER_RTT_printf.c.obj (bzero)
/usr/lib/gcc/arm-none-eabi/9.2.1/../../../arm-none-eabi/lib/thumb/v6-m/nofp/libc_nano.a(lib_a-calloc.o)
                              ../../../../lib/ksdk_platform_lib/armgcc/KL03Z4/release/libksdk_platform.a(fsl_os_abstraction_bm.c.obj) (calloc)
/usr/lib/gcc/arm-none-eabi/9.2.1/../../../arm-none-eabi/lib/thumb/v6-m/nofp/libc_nano.a(lib_a-errno.o)
                              CMakeFiles/Warp.dir/home/students/rr632/Warp-firmware/build/ksdk1.1/work/platform/utilities/src/fsl_misc_utilities.c.obj (__errno)
/usr/lib/gcc/arm-none-eabi/9.2.1/../../../arm-none-eabi/lib/thumb/v6-m/nofp/libc_nano.a(lib_a-exit.o)
                              /usr/lib/gcc/arm-none-eabi/9.2.1/../../../arm-none-eabi/lib/thumb/v6-m/nofp/crt0.o (exit)
/usr/lib/gcc/arm-none-eabi/9.2.1/../../../arm-none-eabi/lib/thumb/v6-m/nofp/libc_nano.a(lib_a-fini.o)
                              /usr/lib/gcc/arm-none-eabi/9.2.1/../../../arm-none-eabi/lib/thumb/v6-m/nofp/crt0.o (__libc_fini_array)
/usr/lib/gcc/arm-none-eabi/9.2.1/../../../arm-none-eabi/lib/thumb/v6-m/nofp/libc_nano.a(lib_a-impure.o)
                              /usr/lib/gcc/arm-none-eabi/9.2.1/../../../arm-none-eabi/lib/thumb/v6-m/nofp/libc_nano.a(lib_a-exit.o) (_global_impure_ptr)
/usr/lib/gcc/arm-none-eabi/9.2.1/../../../arm-none-eabi/lib/thumb/v6-m/nofp/libc_nano.a(lib_a-init.o)
                              /usr/lib/gcc/arm-none-eabi/9.2.1/../../../arm-none-eabi/lib/thumb/v6-m/nofp/crt0.o (__libc_init_array)
/usr/lib/gcc/arm-none-eabi/9.2.1/../../../arm-none-eabi/lib/thumb/v6-m/nofp/libc_nano.a(lib_a-malloc.o)
                              ../../../../lib/ksdk_platform_lib/armgcc/KL03Z4/release/libksdk_platform.a(fsl_os_abstraction_bm.c.obj) (malloc)
/usr/lib/gcc/arm-none-eabi/9.2.1/../../../arm-none-eabi/lib/thumb/v6-m/nofp/libc_nano.a(lib_a-memcpy-stub.o)
                              CMakeFiles/Warp.dir/home/students/rr632/Warp-firmware/build/ksdk1.1/work/demos/Warp/src/SEGGER_RTT.c.obj (memcpy)
/usr/lib/gcc/arm-none-eabi/9.2.1/../../../arm-none-eabi/lib/thumb/v6-m/nofp/libc_nano.a(lib_a-memset.o)
                              /usr/lib/gcc/arm-none-eabi/9.2.1/../../../arm-none-eabi/lib/thumb/v6-m/nofp/crt0.o (memset)
/usr/lib/gcc/arm-none-eabi/9.2.1/../../../arm-none-eabi/lib/thumb/v6-m/nofp/libc_nano.a(lib_a-nano-callocr.o)
                              /usr/lib/gcc/arm-none-eabi/9.2.1/../../../arm-none-eabi/lib/thumb/v6-m/nofp/libc_nano.a(lib_a-calloc.o) (_calloc_r)
/usr/lib/gcc/arm-none-eabi/9.2.1/../../../arm-none-eabi/lib/thumb/v6-m/nofp/libc_nano.a(lib_a-nano-freer.o)
                              /usr/lib/gcc/arm-none-eabi/9.2.1/../../../arm-none-eabi/lib/thumb/v6-m/nofp/libc_nano.a(lib_a-malloc.o) (_free_r)
/usr/lib/gcc/arm-none-eabi/9.2.1/../../../arm-none-eabi/lib/thumb/v6-m/nofp/libc_nano.a(lib_a-nano-mallocr.o)
                              /usr/lib/gcc/arm-none-eabi/9.2.1/../../../arm-none-eabi/lib/thumb/v6-m/nofp/libc_nano.a(lib_a-malloc.o) (_malloc_r)
/usr/lib/gcc/arm-none-eabi/9.2.1/../../../arm-none-eabi/lib/thumb/v6-m/nofp/libc_nano.a(lib_a-sbrkr.o)
                              /usr/lib/gcc/arm-none-eabi/9.2.1/../../../arm-none-eabi/lib/thumb/v6-m/nofp/libc_nano.a(lib_a-nano-mallocr.o) (_sbrk_r)
/usr/lib/gcc/arm-none-eabi/9.2.1/../../../arm-none-eabi/lib/thumb/v6-m/nofp/libc_nano.a(lib_a-strcpy.o)
                              CMakeFiles/Warp.dir/home/students/rr632/Warp-firmware/build/ksdk1.1/work/demos/Warp/src/SEGGER_RTT.c.obj (strcpy)
/usr/lib/gcc/arm-none-eabi/9.2.1/../../../arm-none-eabi/lib/thumb/v6-m/nofp/libc_nano.a(lib_a-strlen-stub.o)
                              CMakeFiles/Warp.dir/home/students/rr632/Warp-firmware/build/ksdk1.1/work/demos/Warp/src/SEGGER_RTT.c.obj (strlen)
/usr/lib/gcc/arm-none-eabi/9.2.1/../../../arm-none-eabi/lib/thumb/v6-m/nofp/libc_nano.a(lib_a-__atexit.o)
                              /usr/lib/gcc/arm-none-eabi/9.2.1/../../../arm-none-eabi/lib/thumb/v6-m/nofp/libc_nano.a(lib_a-atexit.o) (__register_exitproc)
/usr/lib/gcc/arm-none-eabi/9.2.1/../../../arm-none-eabi/lib/thumb/v6-m/nofp/libc_nano.a(lib_a-__call_atexit.o)
                              /usr/lib/gcc/arm-none-eabi/9.2.1/../../../arm-none-eabi/lib/thumb/v6-m/nofp/libc_nano.a(lib_a-__atexit.o) (__call_exitprocs)
/usr/lib/gcc/arm-none-eabi/9.2.1/../../../arm-none-eabi/lib/thumb/v6-m/nofp/libc_nano.a(lib_a-mlock.o)
                              /usr/lib/gcc/arm-none-eabi/9.2.1/../../../arm-none-eabi/lib/thumb/v6-m/nofp/libc_nano.a(lib_a-nano-freer.o) (__malloc_lock)
/usr/lib/gcc/arm-none-eabi/9.2.1/../../../arm-none-eabi/lib/thumb/v6-m/nofp/libc_nano.a(lib_a-reent.o)
                              /usr/lib/gcc/arm-none-eabi/9.2.1/../../../arm-none-eabi/lib/thumb/v6-m/nofp/libc_nano.a(lib_a-sbrkr.o) (errno)
/usr/lib/gcc/arm-none-eabi/9.2.1/thumb/v6-m/nofp/libgcc.a(_thumb1_case_sqi.o)
                              CMakeFiles/Warp.dir/home/students/rr632/Warp-firmware/build/ksdk1.1/work/demos/Warp/src/devCCS811.c.obj (__gnu_thumb1_case_sqi)
/usr/lib/gcc/arm-none-eabi/9.2.1/thumb/v6-m/nofp/libgcc.a(_thumb1_case_uqi.o)
                              CMakeFiles/Warp.dir/home/students/rr632/Warp-firmware/build/ksdk1.1/work/demos/Warp/src/powermodes.c.obj (__gnu_thumb1_case_uqi)
/usr/lib/gcc/arm-none-eabi/9.2.1/thumb/v6-m/nofp/libgcc.a(_thumb1_case_shi.o)
                              CMakeFiles/Warp.dir/home/students/rr632/Warp-firmware/build/ksdk1.1/work/demos/Warp/src/SEGGER_RTT_printf.c.obj (__gnu_thumb1_case_shi)
/usr/lib/gcc/arm-none-eabi/9.2.1/thumb/v6-m/nofp/libgcc.a(_udivsi3.o)
                              CMakeFiles/Warp.dir/home/students/rr632/Warp-firmware/build/ksdk1.1/work/demos/Warp/src/devMMA8451Q.c.obj (__aeabi_uidiv)
/usr/lib/gcc/arm-none-eabi/9.2.1/thumb/v6-m/nofp/libgcc.a(_divsi3.o)
                              CMakeFiles/Warp.dir/home/students/rr632/Warp-firmware/build/ksdk1.1/work/demos/Warp/src/devINA219.c.obj (__aeabi_idiv)
/usr/lib/gcc/arm-none-eabi/9.2.1/thumb/v6-m/nofp/libgcc.a(_dvmd_tls.o)
                              /usr/lib/gcc/arm-none-eabi/9.2.1/thumb/v6-m/nofp/libgcc.a(_udivsi3.o) (__aeabi_idiv0)
/usr/lib/gcc/arm-none-eabi/9.2.1/thumb/v6-m/nofp/libgcc.a(_arm_cmpdf2.o)
                              /usr/lib/gcc/arm-none-eabi/9.2.1/../../../arm-none-eabi/lib/thumb/v6-m/nofp/libm.a(lib_a-w_sqrt.o) (__aeabi_dcmplt)
/usr/lib/gcc/arm-none-eabi/9.2.1/thumb/v6-m/nofp/libgcc.a(_fixunsdfsi.o)
                              CMakeFiles/Warp.dir/home/students/rr632/Warp-firmware/build/ksdk1.1/work/demos/Warp/src/devMMA8451Q.c.obj (__aeabi_d2uiz)
/usr/lib/gcc/arm-none-eabi/9.2.1/thumb/v6-m/nofp/libgcc.a(adddf3.o)
                              /usr/lib/gcc/arm-none-eabi/9.2.1/../../../arm-none-eabi/lib/thumb/v6-m/nofp/libm.a(lib_a-s_round.o) (__aeabi_dadd)
/usr/lib/gcc/arm-none-eabi/9.2.1/thumb/v6-m/nofp/libgcc.a(divdf3.o)
                              /usr/lib/gcc/arm-none-eabi/9.2.1/../../../arm-none-eabi/lib/thumb/v6-m/nofp/libm.a(lib_a-w_sqrt.o) (__aeabi_ddiv)
/usr/lib/gcc/arm-none-eabi/9.2.1/thumb/v6-m/nofp/libgcc.a(eqdf2.o)
                              /usr/lib/gcc/arm-none-eabi/9.2.1/thumb/v6-m/nofp/libgcc.a(_arm_cmpdf2.o) (__eqdf2)
/usr/lib/gcc/arm-none-eabi/9.2.1/thumb/v6-m/nofp/libgcc.a(gedf2.o)
                              /usr/lib/gcc/arm-none-eabi/9.2.1/thumb/v6-m/nofp/libgcc.a(_arm_cmpdf2.o) (__gedf2)
/usr/lib/gcc/arm-none-eabi/9.2.1/thumb/v6-m/nofp/libgcc.a(ledf2.o)
                              /usr/lib/gcc/arm-none-eabi/9.2.1/thumb/v6-m/nofp/libgcc.a(_arm_cmpdf2.o) (__ledf2)
/usr/lib/gcc/arm-none-eabi/9.2.1/thumb/v6-m/nofp/libgcc.a(muldf3.o)
                              /usr/lib/gcc/arm-none-eabi/9.2.1/../../../arm-none-eabi/lib/thumb/v6-m/nofp/libm.a(lib_a-e_sqrt.o) (__aeabi_dmul)
/usr/lib/gcc/arm-none-eabi/9.2.1/thumb/v6-m/nofp/libgcc.a(subdf3.o)
                              /usr/lib/gcc/arm-none-eabi/9.2.1/../../../arm-none-eabi/lib/thumb/v6-m/nofp/libm.a(lib_a-e_sqrt.o) (__aeabi_dsub)
/usr/lib/gcc/arm-none-eabi/9.2.1/thumb/v6-m/nofp/libgcc.a(unorddf2.o)
                              /usr/lib/gcc/arm-none-eabi/9.2.1/../../../arm-none-eabi/lib/thumb/v6-m/nofp/libm.a(lib_a-w_sqrt.o) (__aeabi_dcmpun)
/usr/lib/gcc/arm-none-eabi/9.2.1/thumb/v6-m/nofp/libgcc.a(fixdfsi.o)
                              /usr/lib/gcc/arm-none-eabi/9.2.1/thumb/v6-m/nofp/libgcc.a(_fixunsdfsi.o) (__aeabi_d2iz)
/usr/lib/gcc/arm-none-eabi/9.2.1/thumb/v6-m/nofp/libgcc.a(floatsidf.o)
                              CMakeFiles/Warp.dir/home/students/rr632/Warp-firmware/build/ksdk1.1/work/demos/Warp/src/devMMA8451Q.c.obj (__aeabi_i2d)
/usr/lib/gcc/arm-none-eabi/9.2.1/thumb/v6-m/nofp/libgcc.a(_clzsi2.o)
                              /usr/lib/gcc/arm-none-eabi/9.2.1/thumb/v6-m/nofp/libgcc.a(adddf3.o) (__clzsi2)
/usr/lib/gcc/arm-none-eabi/9.2.1/../../../arm-none-eabi/lib/thumb/v6-m/nofp/libnosys.a(_exit.o)
                              /usr/lib/gcc/arm-none-eabi/9.2.1/../../../arm-none-eabi/lib/thumb/v6-m/nofp/libc_nano.a(lib_a-exit.o) (_exit)

Allocating common symbols
Common symbol       size              file

errno               0x4               /usr/lib/gcc/arm-none-eabi/9.2.1/../../../arm-none-eabi/lib/thumb/v6-m/nofp/libc_nano.a(lib_a-reent.o)

Discarded input sections

 .text          0x0000000000000000        0x0 /usr/lib/gcc/arm-none-eabi/9.2.1/thumb/v6-m/nofp/crti.o
 .data          0x0000000000000000        0x0 /usr/lib/gcc/arm-none-eabi/9.2.1/thumb/v6-m/nofp/crti.o
 .bss           0x0000000000000000        0x0 /usr/lib/gcc/arm-none-eabi/9.2.1/thumb/v6-m/nofp/crti.o
 .data          0x0000000000000000        0x4 /usr/lib/gcc/arm-none-eabi/9.2.1/thumb/v6-m/nofp/crtbegin.o
 .data          0x0000000000000000        0x0 /usr/lib/gcc/arm-none-eabi/9.2.1/../../../arm-none-eabi/lib/thumb/v6-m/nofp/crt0.o
 .bss           0x0000000000000000        0x0 /usr/lib/gcc/arm-none-eabi/9.2.1/../../../arm-none-eabi/lib/thumb/v6-m/nofp/crt0.o
 .ARM.extab     0x0000000000000000        0x0 /usr/lib/gcc/arm-none-eabi/9.2.1/../../../arm-none-eabi/lib/thumb/v6-m/nofp/crt0.o
 .text          0x0000000000000000        0x0 CMakeFiles/Warp.dir/home/students/rr632/Warp-firmware/build/ksdk1.1/work/platform/utilities/src/fsl_misc_utilities.c.obj
 .data          0x0000000000000000        0x0 CMakeFiles/Warp.dir/home/students/rr632/Warp-firmware/build/ksdk1.1/work/platform/utilities/src/fsl_misc_utilities.c.obj
 .bss           0x0000000000000000        0x0 CMakeFiles/Warp.dir/home/students/rr632/Warp-firmware/build/ksdk1.1/work/platform/utilities/src/fsl_misc_utilities.c.obj
 .rodata.assert_func.str1.1
                0x0000000000000000       0x3e CMakeFiles/Warp.dir/home/students/rr632/Warp-firmware/build/ksdk1.1/work/platform/utilities/src/fsl_misc_utilities.c.obj
 .text.assert_func
                0x0000000000000000       0x18 CMakeFiles/Warp.dir/home/students/rr632/Warp-firmware/build/ksdk1.1/work/platform/utilities/src/fsl_misc_utilities.c.obj
 .data          0x0000000000000000        0x0 CMakeFiles/Warp.dir/home/students/rr632/Warp-firmware/build/ksdk1.1/work/platform/startup/MKL03Z4/gcc/startup_MKL03Z4.S.obj
 .bss           0x0000000000000000        0x0 CMakeFiles/Warp.dir/home/students/rr632/Warp-firmware/build/ksdk1.1/work/platform/startup/MKL03Z4/gcc/startup_MKL03Z4.S.obj
 .text          0x0000000000000000        0x0 CMakeFiles/Warp.dir/home/students/rr632/Warp-firmware/build/ksdk1.1/work/demos/Warp/src/script.c.obj
 .data          0x0000000000000000        0x0 CMakeFiles/Warp.dir/home/students/rr632/Warp-firmware/build/ksdk1.1/work/demos/Warp/src/script.c.obj
 .bss           0x0000000000000000        0x0 CMakeFiles/Warp.dir/home/students/rr632/Warp-firmware/build/ksdk1.1/work/demos/Warp/src/script.c.obj
 .text.enableLPUARTpins
                0x0000000000000000       0x44 CMakeFiles/Warp.dir/home/students/rr632/Warp-firmware/build/ksdk1.1/work/demos/Warp/src/script.c.obj
 .text.disableLPUARTpins
                0x0000000000000000       0x44 CMakeFiles/Warp.dir/home/students/rr632/Warp-firmware/build/ksdk1.1/work/demos/Warp/src/script.c.obj
 .text.sendBytesToUART
                0x0000000000000000       0x1c CMakeFiles/Warp.dir/home/students/rr632/Warp-firmware/build/ksdk1.1/work/demos/Warp/src/script.c.obj
 .text.warpEnableSPIpins
                0x0000000000000000       0x5c CMakeFiles/Warp.dir/home/students/rr632/Warp-firmware/build/ksdk1.1/work/demos/Warp/src/script.c.obj
 .text.warpDisableSPIpins
                0x0000000000000000       0x40 CMakeFiles/Warp.dir/home/students/rr632/Warp-firmware/build/ksdk1.1/work/demos/Warp/src/script.c.obj
 .text.warpDeasserAllSPIchipSelects
                0x0000000000000000       0x28 CMakeFiles/Warp.dir/home/students/rr632/Warp-firmware/build/ksdk1.1/work/demos/Warp/src/script.c.obj
 .text.warpDisableI2Cpins
                0x0000000000000000       0x20 CMakeFiles/Warp.dir/home/students/rr632/Warp-firmware/build/ksdk1.1/work/demos/Warp/src/script.c.obj
 .text.warpDisableSupplyVoltage
                0x0000000000000000       0x18 CMakeFiles/Warp.dir/home/students/rr632/Warp-firmware/build/ksdk1.1/work/demos/Warp/src/script.c.obj
 .text.blinkLED
                0x0000000000000000       0x1c CMakeFiles/Warp.dir/home/students/rr632/Warp-firmware/build/ksdk1.1/work/demos/Warp/src/script.c.obj
 .rodata.debugPrintSPIsinkBuffer.str1.1
                0x0000000000000000       0x2c CMakeFiles/Warp.dir/home/students/rr632/Warp-firmware/build/ksdk1.1/work/demos/Warp/src/script.c.obj
 .text.debugPrintSPIsinkBuffer
                0x0000000000000000       0x2c CMakeFiles/Warp.dir/home/students/rr632/Warp-firmware/build/ksdk1.1/work/demos/Warp/src/script.c.obj
 .rodata.warpLowPowerSecondsSleep.str1.1
                0x0000000000000000       0x5e CMakeFiles/Warp.dir/home/students/rr632/Warp-firmware/build/ksdk1.1/work/demos/Warp/src/script.c.obj
 .text.warpLowPowerSecondsSleep
                0x0000000000000000       0x2c CMakeFiles/Warp.dir/home/students/rr632/Warp-firmware/build/ksdk1.1/work/demos/Warp/src/script.c.obj
 .text.warpWaitKey
                0x0000000000000000        0xc CMakeFiles/Warp.dir/home/students/rr632/Warp-firmware/build/ksdk1.1/work/demos/Warp/src/script.c.obj
 .bss.gWarpSpiCommonSinkBuffer
                0x0000000000000000       0x40 CMakeFiles/Warp.dir/home/students/rr632/Warp-firmware/build/ksdk1.1/work/demos/Warp/src/script.c.obj
 .bss.gWarpSpiCommonSourceBuffer
                0x0000000000000000       0x40 CMakeFiles/Warp.dir/home/students/rr632/Warp-firmware/build/ksdk1.1/work/demos/Warp/src/script.c.obj
 .bss.lpuartState
                0x0000000000000000       0x34 CMakeFiles/Warp.dir/home/students/rr632/Warp-firmware/build/ksdk1.1/work/demos/Warp/src/script.c.obj
 .bss.lpuartUserConfig
                0x0000000000000000        0xc CMakeFiles/Warp.dir/home/students/rr632/Warp-firmware/build/ksdk1.1/work/demos/Warp/src/script.c.obj
 .bss.spiMasterState
                0x0000000000000000       0x30 CMakeFiles/Warp.dir/home/students/rr632/Warp-firmware/build/ksdk1.1/work/demos/Warp/src/script.c.obj
 .bss.spiUserConfig
                0x0000000000000000        0x8 CMakeFiles/Warp.dir/home/students/rr632/Warp-firmware/build/ksdk1.1/work/demos/Warp/src/script.c.obj
 .data.gWarpMenuPrintDelayMilliseconds
                0x0000000000000000        0x4 CMakeFiles/Warp.dir/home/students/rr632/Warp-firmware/build/ksdk1.1/work/demos/Warp/src/script.c.obj
 .data.gWarpMode
                0x0000000000000000        0x1 CMakeFiles/Warp.dir/home/students/rr632/Warp-firmware/build/ksdk1.1/work/demos/Warp/src/script.c.obj
 .data.gWarpSpiBaudRateKbps
                0x0000000000000000        0x4 CMakeFiles/Warp.dir/home/students/rr632/Warp-firmware/build/ksdk1.1/work/demos/Warp/src/script.c.obj
 .data.gWarpSpiTimeoutMicroseconds
                0x0000000000000000        0x4 CMakeFiles/Warp.dir/home/students/rr632/Warp-firmware/build/ksdk1.1/work/demos/Warp/src/script.c.obj
 .data.gWarpUartBaudRateBps
                0x0000000000000000        0x4 CMakeFiles/Warp.dir/home/students/rr632/Warp-firmware/build/ksdk1.1/work/demos/Warp/src/script.c.obj
 .data.gWarpUartTimeoutMilliseconds
                0x0000000000000000        0x4 CMakeFiles/Warp.dir/home/students/rr632/Warp-firmware/build/ksdk1.1/work/demos/Warp/src/script.c.obj
 .text          0x0000000000000000        0x0 CMakeFiles/Warp.dir/home/students/rr632/Warp-firmware/build/ksdk1.1/work/demos/Warp/src/errstrsEN.c.obj
 .data          0x0000000000000000        0x0 CMakeFiles/Warp.dir/home/students/rr632/Warp-firmware/build/ksdk1.1/work/demos/Warp/src/errstrsEN.c.obj
 .bss           0x0000000000000000        0x0 CMakeFiles/Warp.dir/home/students/rr632/Warp-firmware/build/ksdk1.1/work/demos/Warp/src/errstrsEN.c.obj
 .rodata.gWarpEmalloc
                0x0000000000000000       0x16 CMakeFiles/Warp.dir/home/students/rr632/Warp-firmware/build/ksdk1.1/work/demos/Warp/src/errstrsEN.c.obj
 .rodata.gWarpEsensorConfig
                0x0000000000000000       0x20 CMakeFiles/Warp.dir/home/students/rr632/Warp-firmware/build/ksdk1.1/work/demos/Warp/src/errstrsEN.c.obj
 .rodata.gWarpEuartSendChars
                0x0000000000000000       0x1f CMakeFiles/Warp.dir/home/students/rr632/Warp-firmware/build/ksdk1.1/work/demos/Warp/src/errstrsEN.c.obj
 .rodata.gWarpEunknownDeviceRegister
                0x0000000000000000       0x3a CMakeFiles/Warp.dir/home/students/rr632/Warp-firmware/build/ksdk1.1/work/demos/Warp/src/errstrsEN.c.obj
 .text          0x0000000000000000        0x0 CMakeFiles/Warp.dir/home/students/rr632/Warp-firmware/build/ksdk1.1/work/demos/Warp/src/powermodes.c.obj
 .data          0x0000000000000000        0x0 CMakeFiles/Warp.dir/home/students/rr632/Warp-firmware/build/ksdk1.1/work/demos/Warp/src/powermodes.c.obj
 .bss           0x0000000000000000        0x0 CMakeFiles/Warp.dir/home/students/rr632/Warp-firmware/build/ksdk1.1/work/demos/Warp/src/powermodes.c.obj
 .text.gpioEnableWakeUp
                0x0000000000000000       0xa4 CMakeFiles/Warp.dir/home/students/rr632/Warp-firmware/build/ksdk1.1/work/demos/Warp/src/powermodes.c.obj
 .text.updateClockManagerToRunMode
                0x0000000000000000       0x1a CMakeFiles/Warp.dir/home/students/rr632/Warp-firmware/build/ksdk1.1/work/demos/Warp/src/powermodes.c.obj
 .text.updateClockManagerToVlprMode
                0x0000000000000000       0x1a CMakeFiles/Warp.dir/home/students/rr632/Warp-firmware/build/ksdk1.1/work/demos/Warp/src/powermodes.c.obj
 .text.update_clock_mode
                0x0000000000000000       0x24 CMakeFiles/Warp.dir/home/students/rr632/Warp-firmware/build/ksdk1.1/work/demos/Warp/src/powermodes.c.obj
 .text          0x0000000000000000        0x0 CMakeFiles/Warp.dir/home/students/rr632/Warp-firmware/build/ksdk1.1/work/demos/Warp/src/devBMX055.c.obj
 .data          0x0000000000000000        0x0 CMakeFiles/Warp.dir/home/students/rr632/Warp-firmware/build/ksdk1.1/work/demos/Warp/src/devBMX055.c.obj
 .bss           0x0000000000000000        0x0 CMakeFiles/Warp.dir/home/students/rr632/Warp-firmware/build/ksdk1.1/work/demos/Warp/src/devBMX055.c.obj
 .text.writeSensorRegisterBMX055accel.part.0
                0x0000000000000000       0x54 CMakeFiles/Warp.dir/home/students/rr632/Warp-firmware/build/ksdk1.1/work/demos/Warp/src/devBMX055.c.obj
 .text.writeSensorRegisterBMX055mag.part.0
                0x0000000000000000       0x54 CMakeFiles/Warp.dir/home/students/rr632/Warp-firmware/build/ksdk1.1/work/demos/Warp/src/devBMX055.c.obj
 .text.writeSensorRegisterBMX055gyro.part.0
                0x0000000000000000       0x54 CMakeFiles/Warp.dir/home/students/rr632/Warp-firmware/build/ksdk1.1/work/demos/Warp/src/devBMX055.c.obj
 .text.initBMX055accel
                0x0000000000000000        0xc CMakeFiles/Warp.dir/home/students/rr632/Warp-firmware/build/ksdk1.1/work/demos/Warp/src/devBMX055.c.obj
 .text.writeSensorRegisterBMX055accel
                0x0000000000000000       0x12 CMakeFiles/Warp.dir/home/students/rr632/Warp-firmware/build/ksdk1.1/work/demos/Warp/src/devBMX055.c.obj
 .text.configureSensorBMX055accel
                0x0000000000000000       0x2c CMakeFiles/Warp.dir/home/students/rr632/Warp-firmware/build/ksdk1.1/work/demos/Warp/src/devBMX055.c.obj
 .rodata.readSensorRegisterBMX055accel.str1.1
                0x0000000000000000        0x2 CMakeFiles/Warp.dir/home/students/rr632/Warp-firmware/build/ksdk1.1/work/demos/Warp/src/devBMX055.c.obj
 .text.readSensorRegisterBMX055accel
                0x0000000000000000       0x6c CMakeFiles/Warp.dir/home/students/rr632/Warp-firmware/build/ksdk1.1/work/demos/Warp/src/devBMX055.c.obj
 .text.initBMX055mag
                0x0000000000000000        0xc CMakeFiles/Warp.dir/home/students/rr632/Warp-firmware/build/ksdk1.1/work/demos/Warp/src/devBMX055.c.obj
 .text.writeSensorRegisterBMX055mag
                0x0000000000000000       0x16 CMakeFiles/Warp.dir/home/students/rr632/Warp-firmware/build/ksdk1.1/work/demos/Warp/src/devBMX055.c.obj
 .text.configureSensorBMX055mag
                0x0000000000000000       0x2c CMakeFiles/Warp.dir/home/students/rr632/Warp-firmware/build/ksdk1.1/work/demos/Warp/src/devBMX055.c.obj
 .text.readSensorRegisterBMX055mag
                0x0000000000000000       0x70 CMakeFiles/Warp.dir/home/students/rr632/Warp-firmware/build/ksdk1.1/work/demos/Warp/src/devBMX055.c.obj
 .text.initBMX055gyro
                0x0000000000000000        0xc CMakeFiles/Warp.dir/home/students/rr632/Warp-firmware/build/ksdk1.1/work/demos/Warp/src/devBMX055.c.obj
 .text.writeSensorRegisterBMX055gyro
                0x0000000000000000       0x12 CMakeFiles/Warp.dir/home/students/rr632/Warp-firmware/build/ksdk1.1/work/demos/Warp/src/devBMX055.c.obj
 .text.configureSensorBMX055gyro
                0x0000000000000000       0x48 CMakeFiles/Warp.dir/home/students/rr632/Warp-firmware/build/ksdk1.1/work/demos/Warp/src/devBMX055.c.obj
 .text.readSensorRegisterBMX055gyro
                0x0000000000000000       0x6c CMakeFiles/Warp.dir/home/students/rr632/Warp-firmware/build/ksdk1.1/work/demos/Warp/src/devBMX055.c.obj
 .rodata.printSensorDataBMX055accel.str1.1
                0x0000000000000000       0x25 CMakeFiles/Warp.dir/home/students/rr632/Warp-firmware/build/ksdk1.1/work/demos/Warp/src/devBMX055.c.obj
 .text.printSensorDataBMX055accel
                0x0000000000000000      0x110 CMakeFiles/Warp.dir/home/students/rr632/Warp-firmware/build/ksdk1.1/work/demos/Warp/src/devBMX055.c.obj
 .text.printSensorDataBMX055gyro
                0x0000000000000000       0xbc CMakeFiles/Warp.dir/home/students/rr632/Warp-firmware/build/ksdk1.1/work/demos/Warp/src/devBMX055.c.obj
 .text.printSensorDataBMX055mag
                0x0000000000000000      0x128 CMakeFiles/Warp.dir/home/students/rr632/Warp-firmware/build/ksdk1.1/work/demos/Warp/src/devBMX055.c.obj
 .comment       0x0000000000000000       0x5a CMakeFiles/Warp.dir/home/students/rr632/Warp-firmware/build/ksdk1.1/work/demos/Warp/src/devBMX055.c.obj
 .ARM.attributes
                0x0000000000000000       0x2c CMakeFiles/Warp.dir/home/students/rr632/Warp-firmware/build/ksdk1.1/work/demos/Warp/src/devBMX055.c.obj
 .text          0x0000000000000000        0x0 CMakeFiles/Warp.dir/home/students/rr632/Warp-firmware/build/ksdk1.1/work/demos/Warp/src/devADXL362.c.obj
 .data          0x0000000000000000        0x0 CMakeFiles/Warp.dir/home/students/rr632/Warp-firmware/build/ksdk1.1/work/demos/Warp/src/devADXL362.c.obj
 .bss           0x0000000000000000        0x0 CMakeFiles/Warp.dir/home/students/rr632/Warp-firmware/build/ksdk1.1/work/demos/Warp/src/devADXL362.c.obj
 .text.writeSensorRegisterADXL362
                0x0000000000000000       0x70 CMakeFiles/Warp.dir/home/students/rr632/Warp-firmware/build/ksdk1.1/work/demos/Warp/src/devADXL362.c.obj
 .text.initADXL362
                0x0000000000000000       0xb0 CMakeFiles/Warp.dir/home/students/rr632/Warp-firmware/build/ksdk1.1/work/demos/Warp/src/devADXL362.c.obj
 .text.readSensorRegisterADXL362
                0x0000000000000000       0x10 CMakeFiles/Warp.dir/home/students/rr632/Warp-firmware/build/ksdk1.1/work/demos/Warp/src/devADXL362.c.obj
 .rodata.readFIFObytesADXL362.str1.1
                0x0000000000000000      0x136 CMakeFiles/Warp.dir/home/students/rr632/Warp-firmware/build/ksdk1.1/work/demos/Warp/src/devADXL362.c.obj
 .text.readFIFObytesADXL362
                0x0000000000000000      0x198 CMakeFiles/Warp.dir/home/students/rr632/Warp-firmware/build/ksdk1.1/work/demos/Warp/src/devADXL362.c.obj
 .rodata.printSensorDataADXL362.str1.1
                0x0000000000000000       0x1c CMakeFiles/Warp.dir/home/students/rr632/Warp-firmware/build/ksdk1.1/work/demos/Warp/src/devADXL362.c.obj
 .text.printSensorDataADXL362
                0x0000000000000000       0xc0 CMakeFiles/Warp.dir/home/students/rr632/Warp-firmware/build/ksdk1.1/work/demos/Warp/src/devADXL362.c.obj
 .comment       0x0000000000000000       0x5a CMakeFiles/Warp.dir/home/students/rr632/Warp-firmware/build/ksdk1.1/work/demos/Warp/src/devADXL362.c.obj
 .ARM.attributes
                0x0000000000000000       0x2c CMakeFiles/Warp.dir/home/students/rr632/Warp-firmware/build/ksdk1.1/work/demos/Warp/src/devADXL362.c.obj
 .text          0x0000000000000000        0x0 CMakeFiles/Warp.dir/home/students/rr632/Warp-firmware/build/ksdk1.1/work/demos/Warp/src/devIS25xP.c.obj
 .data          0x0000000000000000        0x0 CMakeFiles/Warp.dir/home/students/rr632/Warp-firmware/build/ksdk1.1/work/demos/Warp/src/devIS25xP.c.obj
 .bss           0x0000000000000000        0x0 CMakeFiles/Warp.dir/home/students/rr632/Warp-firmware/build/ksdk1.1/work/demos/Warp/src/devIS25xP.c.obj
 .text.initIS25xP
                0x0000000000000000       0x20 CMakeFiles/Warp.dir/home/students/rr632/Warp-firmware/build/ksdk1.1/work/demos/Warp/src/devIS25xP.c.obj
 .text.spiTransactionIS25xP
                0x0000000000000000       0x78 CMakeFiles/Warp.dir/home/students/rr632/Warp-firmware/build/ksdk1.1/work/demos/Warp/src/devIS25xP.c.obj
 .comment       0x0000000000000000       0x5a CMakeFiles/Warp.dir/home/students/rr632/Warp-firmware/build/ksdk1.1/work/demos/Warp/src/devIS25xP.c.obj
 .ARM.attributes
                0x0000000000000000       0x2c CMakeFiles/Warp.dir/home/students/rr632/Warp-firmware/build/ksdk1.1/work/demos/Warp/src/devIS25xP.c.obj
 .text          0x0000000000000000        0x0 CMakeFiles/Warp.dir/home/students/rr632/Warp-firmware/build/ksdk1.1/work/demos/Warp/src/devISL23415.c.obj
 .data          0x0000000000000000        0x0 CMakeFiles/Warp.dir/home/students/rr632/Warp-firmware/build/ksdk1.1/work/demos/Warp/src/devISL23415.c.obj
 .bss           0x0000000000000000        0x0 CMakeFiles/Warp.dir/home/students/rr632/Warp-firmware/build/ksdk1.1/work/demos/Warp/src/devISL23415.c.obj
 .text.initISL23415
                0x0000000000000000       0x20 CMakeFiles/Warp.dir/home/students/rr632/Warp-firmware/build/ksdk1.1/work/demos/Warp/src/devISL23415.c.obj
 .text.readDeviceRegisterISL23415
                0x0000000000000000       0x88 CMakeFiles/Warp.dir/home/students/rr632/Warp-firmware/build/ksdk1.1/work/demos/Warp/src/devISL23415.c.obj
 .text.writeDeviceRegisterISL23415
                0x0000000000000000       0x78 CMakeFiles/Warp.dir/home/students/rr632/Warp-firmware/build/ksdk1.1/work/demos/Warp/src/devISL23415.c.obj
 .comment       0x0000000000000000       0x5a CMakeFiles/Warp.dir/home/students/rr632/Warp-firmware/build/ksdk1.1/work/demos/Warp/src/devISL23415.c.obj
 .ARM.attributes
                0x0000000000000000       0x2c CMakeFiles/Warp.dir/home/students/rr632/Warp-firmware/build/ksdk1.1/work/demos/Warp/src/devISL23415.c.obj
 .text          0x0000000000000000        0x0 CMakeFiles/Warp.dir/home/students/rr632/Warp-firmware/build/ksdk1.1/work/demos/Warp/src/devAT45DB.c.obj
 .data          0x0000000000000000        0x0 CMakeFiles/Warp.dir/home/students/rr632/Warp-firmware/build/ksdk1.1/work/demos/Warp/src/devAT45DB.c.obj
 .bss           0x0000000000000000        0x0 CMakeFiles/Warp.dir/home/students/rr632/Warp-firmware/build/ksdk1.1/work/demos/Warp/src/devAT45DB.c.obj
 .text.initAT45DB
                0x0000000000000000       0x20 CMakeFiles/Warp.dir/home/students/rr632/Warp-firmware/build/ksdk1.1/work/demos/Warp/src/devAT45DB.c.obj
 .text.spiTransactionAT45DB
                0x0000000000000000       0x84 CMakeFiles/Warp.dir/home/students/rr632/Warp-firmware/build/ksdk1.1/work/demos/Warp/src/devAT45DB.c.obj
 .comment       0x0000000000000000       0x5a CMakeFiles/Warp.dir/home/students/rr632/Warp-firmware/build/ksdk1.1/work/demos/Warp/src/devAT45DB.c.obj
 .ARM.attributes
                0x0000000000000000       0x2c CMakeFiles/Warp.dir/home/students/rr632/Warp-firmware/build/ksdk1.1/work/demos/Warp/src/devAT45DB.c.obj
 .text          0x0000000000000000        0x0 CMakeFiles/Warp.dir/home/students/rr632/Warp-firmware/build/ksdk1.1/work/demos/Warp/src/devMMA8451Q.c.obj
 .data          0x0000000000000000        0x0 CMakeFiles/Warp.dir/home/students/rr632/Warp-firmware/build/ksdk1.1/work/demos/Warp/src/devMMA8451Q.c.obj
 .bss           0x0000000000000000        0x0 CMakeFiles/Warp.dir/home/students/rr632/Warp-firmware/build/ksdk1.1/work/demos/Warp/src/devMMA8451Q.c.obj
 .text.writeSensorRegisterMMA8451Q
                0x0000000000000000       0x48 CMakeFiles/Warp.dir/home/students/rr632/Warp-firmware/build/ksdk1.1/work/demos/Warp/src/devMMA8451Q.c.obj
 .rodata.printSensorDataMMA8451Q.str1.1
                0x0000000000000000       0x1c CMakeFiles/Warp.dir/home/students/rr632/Warp-firmware/build/ksdk1.1/work/demos/Warp/src/devMMA8451Q.c.obj
 .text.printSensorDataMMA8451Q
                0x0000000000000000       0xe0 CMakeFiles/Warp.dir/home/students/rr632/Warp-firmware/build/ksdk1.1/work/demos/Warp/src/devMMA8451Q.c.obj
 .text          0x0000000000000000        0x0 CMakeFiles/Warp.dir/home/students/rr632/Warp-firmware/build/ksdk1.1/work/demos/Warp/src/devSSD1331.c.obj
 .data          0x0000000000000000        0x0 CMakeFiles/Warp.dir/home/students/rr632/Warp-firmware/build/ksdk1.1/work/demos/Warp/src/devSSD1331.c.obj
 .bss           0x0000000000000000        0x0 CMakeFiles/Warp.dir/home/students/rr632/Warp-firmware/build/ksdk1.1/work/demos/Warp/src/devSSD1331.c.obj
 .text.writeCommand
                0x0000000000000000       0x4c CMakeFiles/Warp.dir/home/students/rr632/Warp-firmware/build/ksdk1.1/work/demos/Warp/src/devSSD1331.c.obj
 .rodata.devSSD1331init.str1.1
                0x0000000000000000       0xae CMakeFiles/Warp.dir/home/students/rr632/Warp-firmware/build/ksdk1.1/work/demos/Warp/src/devSSD1331.c.obj
 .text.devSSD1331init
                0x0000000000000000      0x1dc CMakeFiles/Warp.dir/home/students/rr632/Warp-firmware/build/ksdk1.1/work/demos/Warp/src/devSSD1331.c.obj
 .bss.inBuffer  0x0000000000000000        0x1 CMakeFiles/Warp.dir/home/students/rr632/Warp-firmware/build/ksdk1.1/work/demos/Warp/src/devSSD1331.c.obj
 .bss.payloadBytes
                0x0000000000000000        0x1 CMakeFiles/Warp.dir/home/students/rr632/Warp-firmware/build/ksdk1.1/work/demos/Warp/src/devSSD1331.c.obj
 .comment       0x0000000000000000       0x5a CMakeFiles/Warp.dir/home/students/rr632/Warp-firmware/build/ksdk1.1/work/demos/Warp/src/devSSD1331.c.obj
 .ARM.attributes
                0x0000000000000000       0x2c CMakeFiles/Warp.dir/home/students/rr632/Warp-firmware/build/ksdk1.1/work/demos/Warp/src/devSSD1331.c.obj
 .text          0x0000000000000000        0x0 CMakeFiles/Warp.dir/home/students/rr632/Warp-firmware/build/ksdk1.1/work/demos/Warp/src/devINA219.c.obj
 .data          0x0000000000000000        0x0 CMakeFiles/Warp.dir/home/students/rr632/Warp-firmware/build/ksdk1.1/work/demos/Warp/src/devINA219.c.obj
 .bss           0x0000000000000000        0x0 CMakeFiles/Warp.dir/home/students/rr632/Warp-firmware/build/ksdk1.1/work/demos/Warp/src/devINA219.c.obj
 .text.initINA219
                0x0000000000000000        0xc CMakeFiles/Warp.dir/home/students/rr632/Warp-firmware/build/ksdk1.1/work/demos/Warp/src/devINA219.c.obj
 .text.writeSensorRegisterINA219
                0x0000000000000000       0x5c CMakeFiles/Warp.dir/home/students/rr632/Warp-firmware/build/ksdk1.1/work/demos/Warp/src/devINA219.c.obj
 .text.configureSensorINA219
                0x0000000000000000       0x30 CMakeFiles/Warp.dir/home/students/rr632/Warp-firmware/build/ksdk1.1/work/demos/Warp/src/devINA219.c.obj
 .rodata.readSensorRegisterINA219.str1.1
                0x0000000000000000        0x2 CMakeFiles/Warp.dir/home/students/rr632/Warp-firmware/build/ksdk1.1/work/demos/Warp/src/devINA219.c.obj
 .text.readSensorRegisterINA219
                0x0000000000000000       0x64 CMakeFiles/Warp.dir/home/students/rr632/Warp-firmware/build/ksdk1.1/work/demos/Warp/src/devINA219.c.obj
 .rodata.printSensorDataINA219.str1.1
                0x0000000000000000      0x12c CMakeFiles/Warp.dir/home/students/rr632/Warp-firmware/build/ksdk1.1/work/demos/Warp/src/devINA219.c.obj
 .text.printSensorDataINA219
                0x0000000000000000       0xd4 CMakeFiles/Warp.dir/home/students/rr632/Warp-firmware/build/ksdk1.1/work/demos/Warp/src/devINA219.c.obj
 .comment       0x0000000000000000       0x5a CMakeFiles/Warp.dir/home/students/rr632/Warp-firmware/build/ksdk1.1/work/demos/Warp/src/devINA219.c.obj
 .ARM.attributes
                0x0000000000000000       0x2c CMakeFiles/Warp.dir/home/students/rr632/Warp-firmware/build/ksdk1.1/work/demos/Warp/src/devINA219.c.obj
 .text          0x0000000000000000        0x0 CMakeFiles/Warp.dir/home/students/rr632/Warp-firmware/build/ksdk1.1/work/demos/Warp/src/devLPS25H.c.obj
 .data          0x0000000000000000        0x0 CMakeFiles/Warp.dir/home/students/rr632/Warp-firmware/build/ksdk1.1/work/demos/Warp/src/devLPS25H.c.obj
 .bss           0x0000000000000000        0x0 CMakeFiles/Warp.dir/home/students/rr632/Warp-firmware/build/ksdk1.1/work/demos/Warp/src/devLPS25H.c.obj
 .text.initLPS25H
                0x0000000000000000        0xc CMakeFiles/Warp.dir/home/students/rr632/Warp-firmware/build/ksdk1.1/work/demos/Warp/src/devLPS25H.c.obj
 .rodata.readSensorRegisterLPS25H.str1.1
                0x0000000000000000        0x2 CMakeFiles/Warp.dir/home/students/rr632/Warp-firmware/build/ksdk1.1/work/demos/Warp/src/devLPS25H.c.obj
 .text.readSensorRegisterLPS25H
                0x0000000000000000       0x8c CMakeFiles/Warp.dir/home/students/rr632/Warp-firmware/build/ksdk1.1/work/demos/Warp/src/devLPS25H.c.obj
 .comment       0x0000000000000000       0x5a CMakeFiles/Warp.dir/home/students/rr632/Warp-firmware/build/ksdk1.1/work/demos/Warp/src/devLPS25H.c.obj
 .ARM.attributes
                0x0000000000000000       0x2c CMakeFiles/Warp.dir/home/students/rr632/Warp-firmware/build/ksdk1.1/work/demos/Warp/src/devLPS25H.c.obj
 .text          0x0000000000000000        0x0 CMakeFiles/Warp.dir/home/students/rr632/Warp-firmware/build/ksdk1.1/work/demos/Warp/src/devHDC1000.c.obj
 .data          0x0000000000000000        0x0 CMakeFiles/Warp.dir/home/students/rr632/Warp-firmware/build/ksdk1.1/work/demos/Warp/src/devHDC1000.c.obj
 .bss           0x0000000000000000        0x0 CMakeFiles/Warp.dir/home/students/rr632/Warp-firmware/build/ksdk1.1/work/demos/Warp/src/devHDC1000.c.obj
 .text.initHDC1000
                0x0000000000000000        0xc CMakeFiles/Warp.dir/home/students/rr632/Warp-firmware/build/ksdk1.1/work/demos/Warp/src/devHDC1000.c.obj
 .text.writeSensorRegisterHDC1000
                0x0000000000000000       0x54 CMakeFiles/Warp.dir/home/students/rr632/Warp-firmware/build/ksdk1.1/work/demos/Warp/src/devHDC1000.c.obj
 .rodata.readSensorRegisterHDC1000.str1.1
                0x0000000000000000        0x2 CMakeFiles/Warp.dir/home/students/rr632/Warp-firmware/build/ksdk1.1/work/demos/Warp/src/devHDC1000.c.obj
 .text.readSensorRegisterHDC1000
                0x0000000000000000       0xa8 CMakeFiles/Warp.dir/home/students/rr632/Warp-firmware/build/ksdk1.1/work/demos/Warp/src/devHDC1000.c.obj
 .rodata.printSensorDataHDC1000.str1.1
                0x0000000000000000       0x1c CMakeFiles/Warp.dir/home/students/rr632/Warp-firmware/build/ksdk1.1/work/demos/Warp/src/devHDC1000.c.obj
 .text.printSensorDataHDC1000
                0x0000000000000000       0x98 CMakeFiles/Warp.dir/home/students/rr632/Warp-firmware/build/ksdk1.1/work/demos/Warp/src/devHDC1000.c.obj
 .comment       0x0000000000000000       0x5a CMakeFiles/Warp.dir/home/students/rr632/Warp-firmware/build/ksdk1.1/work/demos/Warp/src/devHDC1000.c.obj
 .ARM.attributes
                0x0000000000000000       0x2c CMakeFiles/Warp.dir/home/students/rr632/Warp-firmware/build/ksdk1.1/work/demos/Warp/src/devHDC1000.c.obj
 .text          0x0000000000000000        0x0 CMakeFiles/Warp.dir/home/students/rr632/Warp-firmware/build/ksdk1.1/work/demos/Warp/src/devMAG3110.c.obj
 .data          0x0000000000000000        0x0 CMakeFiles/Warp.dir/home/students/rr632/Warp-firmware/build/ksdk1.1/work/demos/Warp/src/devMAG3110.c.obj
 .bss           0x0000000000000000        0x0 CMakeFiles/Warp.dir/home/students/rr632/Warp-firmware/build/ksdk1.1/work/demos/Warp/src/devMAG3110.c.obj
 .text.writeSensorRegisterMAG3110.part.0
                0x0000000000000000       0x58 CMakeFiles/Warp.dir/home/students/rr632/Warp-firmware/build/ksdk1.1/work/demos/Warp/src/devMAG3110.c.obj
 .text.initMAG3110
                0x0000000000000000        0xc CMakeFiles/Warp.dir/home/students/rr632/Warp-firmware/build/ksdk1.1/work/demos/Warp/src/devMAG3110.c.obj
 .text.writeSensorRegisterMAG3110
                0x0000000000000000       0x22 CMakeFiles/Warp.dir/home/students/rr632/Warp-firmware/build/ksdk1.1/work/demos/Warp/src/devMAG3110.c.obj
 .text.configureSensorMAG3110
                0x0000000000000000       0x38 CMakeFiles/Warp.dir/home/students/rr632/Warp-firmware/build/ksdk1.1/work/demos/Warp/src/devMAG3110.c.obj
 .rodata.readSensorRegisterMAG3110.str1.1
                0x0000000000000000        0x2 CMakeFiles/Warp.dir/home/students/rr632/Warp-firmware/build/ksdk1.1/work/demos/Warp/src/devMAG3110.c.obj
 .text.readSensorRegisterMAG3110
                0x0000000000000000       0x84 CMakeFiles/Warp.dir/home/students/rr632/Warp-firmware/build/ksdk1.1/work/demos/Warp/src/devMAG3110.c.obj
 .rodata.printSensorDataMAG3110.str1.1
                0x0000000000000000       0x25 CMakeFiles/Warp.dir/home/students/rr632/Warp-firmware/build/ksdk1.1/work/demos/Warp/src/devMAG3110.c.obj
 .text.printSensorDataMAG3110
                0x0000000000000000       0xec CMakeFiles/Warp.dir/home/students/rr632/Warp-firmware/build/ksdk1.1/work/demos/Warp/src/devMAG3110.c.obj
 .comment       0x0000000000000000       0x5a CMakeFiles/Warp.dir/home/students/rr632/Warp-firmware/build/ksdk1.1/work/demos/Warp/src/devMAG3110.c.obj
 .ARM.attributes
                0x0000000000000000       0x2c CMakeFiles/Warp.dir/home/students/rr632/Warp-firmware/build/ksdk1.1/work/demos/Warp/src/devMAG3110.c.obj
 .text          0x0000000000000000        0x0 CMakeFiles/Warp.dir/home/students/rr632/Warp-firmware/build/ksdk1.1/work/demos/Warp/src/devSI7021.c.obj
 .data          0x0000000000000000        0x0 CMakeFiles/Warp.dir/home/students/rr632/Warp-firmware/build/ksdk1.1/work/demos/Warp/src/devSI7021.c.obj
 .bss           0x0000000000000000        0x0 CMakeFiles/Warp.dir/home/students/rr632/Warp-firmware/build/ksdk1.1/work/demos/Warp/src/devSI7021.c.obj
 .text.initSI7021
                0x0000000000000000        0xc CMakeFiles/Warp.dir/home/students/rr632/Warp-firmware/build/ksdk1.1/work/demos/Warp/src/devSI7021.c.obj
 .text.readSensorRegisterSI7021
                0x0000000000000000       0xb4 CMakeFiles/Warp.dir/home/students/rr632/Warp-firmware/build/ksdk1.1/work/demos/Warp/src/devSI7021.c.obj
 .comment       0x0000000000000000       0x5a CMakeFiles/Warp.dir/home/students/rr632/Warp-firmware/build/ksdk1.1/work/demos/Warp/src/devSI7021.c.obj
 .ARM.attributes
                0x0000000000000000       0x2c CMakeFiles/Warp.dir/home/students/rr632/Warp-firmware/build/ksdk1.1/work/demos/Warp/src/devSI7021.c.obj
 .text          0x0000000000000000        0x0 CMakeFiles/Warp.dir/home/students/rr632/Warp-firmware/build/ksdk1.1/work/demos/Warp/src/devL3GD20H.c.obj
 .data          0x0000000000000000        0x0 CMakeFiles/Warp.dir/home/students/rr632/Warp-firmware/build/ksdk1.1/work/demos/Warp/src/devL3GD20H.c.obj
 .bss           0x0000000000000000        0x0 CMakeFiles/Warp.dir/home/students/rr632/Warp-firmware/build/ksdk1.1/work/demos/Warp/src/devL3GD20H.c.obj
 .text.writeSensorRegisterL3GD20H.part.0
                0x0000000000000000       0x58 CMakeFiles/Warp.dir/home/students/rr632/Warp-firmware/build/ksdk1.1/work/demos/Warp/src/devL3GD20H.c.obj
 .text.initL3GD20H
                0x0000000000000000        0xc CMakeFiles/Warp.dir/home/students/rr632/Warp-firmware/build/ksdk1.1/work/demos/Warp/src/devL3GD20H.c.obj
 .text.writeSensorRegisterL3GD20H
                0x0000000000000000       0x2c CMakeFiles/Warp.dir/home/students/rr632/Warp-firmware/build/ksdk1.1/work/demos/Warp/src/devL3GD20H.c.obj
 .text.configureSensorL3GD20H
                0x0000000000000000       0x3c CMakeFiles/Warp.dir/home/students/rr632/Warp-firmware/build/ksdk1.1/work/demos/Warp/src/devL3GD20H.c.obj
 .rodata.readSensorRegisterL3GD20H.str1.1
                0x0000000000000000        0x2 CMakeFiles/Warp.dir/home/students/rr632/Warp-firmware/build/ksdk1.1/work/demos/Warp/src/devL3GD20H.c.obj
 .text.readSensorRegisterL3GD20H
                0x0000000000000000       0x8c CMakeFiles/Warp.dir/home/students/rr632/Warp-firmware/build/ksdk1.1/work/demos/Warp/src/devL3GD20H.c.obj
 .rodata.printSensorDataL3GD20H.str1.1
                0x0000000000000000       0x25 CMakeFiles/Warp.dir/home/students/rr632/Warp-firmware/build/ksdk1.1/work/demos/Warp/src/devL3GD20H.c.obj
 .text.printSensorDataL3GD20H
                0x0000000000000000      0x11c CMakeFiles/Warp.dir/home/students/rr632/Warp-firmware/build/ksdk1.1/work/demos/Warp/src/devL3GD20H.c.obj
 .comment       0x0000000000000000       0x5a CMakeFiles/Warp.dir/home/students/rr632/Warp-firmware/build/ksdk1.1/work/demos/Warp/src/devL3GD20H.c.obj
 .ARM.attributes
                0x0000000000000000       0x2c CMakeFiles/Warp.dir/home/students/rr632/Warp-firmware/build/ksdk1.1/work/demos/Warp/src/devL3GD20H.c.obj
 .text          0x0000000000000000        0x0 CMakeFiles/Warp.dir/home/students/rr632/Warp-firmware/build/ksdk1.1/work/demos/Warp/src/devBME680.c.obj
 .data          0x0000000000000000        0x0 CMakeFiles/Warp.dir/home/students/rr632/Warp-firmware/build/ksdk1.1/work/demos/Warp/src/devBME680.c.obj
 .bss           0x0000000000000000        0x0 CMakeFiles/Warp.dir/home/students/rr632/Warp-firmware/build/ksdk1.1/work/demos/Warp/src/devBME680.c.obj
 .text.initBME680
                0x0000000000000000        0xc CMakeFiles/Warp.dir/home/students/rr632/Warp-firmware/build/ksdk1.1/work/demos/Warp/src/devBME680.c.obj
 .text.writeSensorRegisterBME680
                0x0000000000000000       0x54 CMakeFiles/Warp.dir/home/students/rr632/Warp-firmware/build/ksdk1.1/work/demos/Warp/src/devBME680.c.obj
 .rodata.readSensorRegisterBME680.str1.1
                0x0000000000000000        0x2 CMakeFiles/Warp.dir/home/students/rr632/Warp-firmware/build/ksdk1.1/work/demos/Warp/src/devBME680.c.obj
 .text.readSensorRegisterBME680
                0x0000000000000000       0x68 CMakeFiles/Warp.dir/home/students/rr632/Warp-firmware/build/ksdk1.1/work/demos/Warp/src/devBME680.c.obj
 .text.configureSensorBME680
                0x0000000000000000       0x8c CMakeFiles/Warp.dir/home/students/rr632/Warp-firmware/build/ksdk1.1/work/demos/Warp/src/devBME680.c.obj
 .rodata.printSensorDataBME680.str1.1
                0x0000000000000000       0x33 CMakeFiles/Warp.dir/home/students/rr632/Warp-firmware/build/ksdk1.1/work/demos/Warp/src/devBME680.c.obj
 .text.printSensorDataBME680
                0x0000000000000000      0x140 CMakeFiles/Warp.dir/home/students/rr632/Warp-firmware/build/ksdk1.1/work/demos/Warp/src/devBME680.c.obj
 .comment       0x0000000000000000       0x5a CMakeFiles/Warp.dir/home/students/rr632/Warp-firmware/build/ksdk1.1/work/demos/Warp/src/devBME680.c.obj
 .ARM.attributes
                0x0000000000000000       0x2c CMakeFiles/Warp.dir/home/students/rr632/Warp-firmware/build/ksdk1.1/work/demos/Warp/src/devBME680.c.obj
 .text          0x0000000000000000        0x0 CMakeFiles/Warp.dir/home/students/rr632/Warp-firmware/build/ksdk1.1/work/demos/Warp/src/devTCS34725.c.obj
 .data          0x0000000000000000        0x0 CMakeFiles/Warp.dir/home/students/rr632/Warp-firmware/build/ksdk1.1/work/demos/Warp/src/devTCS34725.c.obj
 .bss           0x0000000000000000        0x0 CMakeFiles/Warp.dir/home/students/rr632/Warp-firmware/build/ksdk1.1/work/demos/Warp/src/devTCS34725.c.obj
 .text.initTCS34725
                0x0000000000000000        0xc CMakeFiles/Warp.dir/home/students/rr632/Warp-firmware/build/ksdk1.1/work/demos/Warp/src/devTCS34725.c.obj
 .rodata.readSensorRegisterTCS34725.str1.1
                0x0000000000000000        0x2 CMakeFiles/Warp.dir/home/students/rr632/Warp-firmware/build/ksdk1.1/work/demos/Warp/src/devTCS34725.c.obj
 .text.readSensorRegisterTCS34725
                0x0000000000000000       0x90 CMakeFiles/Warp.dir/home/students/rr632/Warp-firmware/build/ksdk1.1/work/demos/Warp/src/devTCS34725.c.obj
 .comment       0x0000000000000000       0x5a CMakeFiles/Warp.dir/home/students/rr632/Warp-firmware/build/ksdk1.1/work/demos/Warp/src/devTCS34725.c.obj
 .ARM.attributes
                0x0000000000000000       0x2c CMakeFiles/Warp.dir/home/students/rr632/Warp-firmware/build/ksdk1.1/work/demos/Warp/src/devTCS34725.c.obj
 .text          0x0000000000000000        0x0 CMakeFiles/Warp.dir/home/students/rr632/Warp-firmware/build/ksdk1.1/work/demos/Warp/src/devSI4705.c.obj
 .data          0x0000000000000000        0x0 CMakeFiles/Warp.dir/home/students/rr632/Warp-firmware/build/ksdk1.1/work/demos/Warp/src/devSI4705.c.obj
 .bss           0x0000000000000000        0x0 CMakeFiles/Warp.dir/home/students/rr632/Warp-firmware/build/ksdk1.1/work/demos/Warp/src/devSI4705.c.obj
 .text.initSI4705
                0x0000000000000000        0xc CMakeFiles/Warp.dir/home/students/rr632/Warp-firmware/build/ksdk1.1/work/demos/Warp/src/devSI4705.c.obj
 .text.readSensorRegisterSI4705
                0x0000000000000000       0x6c CMakeFiles/Warp.dir/home/students/rr632/Warp-firmware/build/ksdk1.1/work/demos/Warp/src/devSI4705.c.obj
 .comment       0x0000000000000000       0x5a CMakeFiles/Warp.dir/home/students/rr632/Warp-firmware/build/ksdk1.1/work/demos/Warp/src/devSI4705.c.obj
 .ARM.attributes
                0x0000000000000000       0x2c CMakeFiles/Warp.dir/home/students/rr632/Warp-firmware/build/ksdk1.1/work/demos/Warp/src/devSI4705.c.obj
 .text          0x0000000000000000        0x0 CMakeFiles/Warp.dir/home/students/rr632/Warp-firmware/build/ksdk1.1/work/demos/Warp/src/devCCS811.c.obj
 .data          0x0000000000000000        0x0 CMakeFiles/Warp.dir/home/students/rr632/Warp-firmware/build/ksdk1.1/work/demos/Warp/src/devCCS811.c.obj
 .bss           0x0000000000000000        0x0 CMakeFiles/Warp.dir/home/students/rr632/Warp-firmware/build/ksdk1.1/work/demos/Warp/src/devCCS811.c.obj
 .text.initCCS811
                0x0000000000000000        0xc CMakeFiles/Warp.dir/home/students/rr632/Warp-firmware/build/ksdk1.1/work/demos/Warp/src/devCCS811.c.obj
 .text.writeSensorRegisterCCS811
                0x0000000000000000       0xb0 CMakeFiles/Warp.dir/home/students/rr632/Warp-firmware/build/ksdk1.1/work/demos/Warp/src/devCCS811.c.obj
 .text.configureSensorCCS811
                0x0000000000000000       0x40 CMakeFiles/Warp.dir/home/students/rr632/Warp-firmware/build/ksdk1.1/work/demos/Warp/src/devCCS811.c.obj
 .rodata.readSensorRegisterCCS811.str1.1
                0x0000000000000000        0x2 CMakeFiles/Warp.dir/home/students/rr632/Warp-firmware/build/ksdk1.1/work/demos/Warp/src/devCCS811.c.obj
 .text.readSensorRegisterCCS811
                0x0000000000000000       0x6c CMakeFiles/Warp.dir/home/students/rr632/Warp-firmware/build/ksdk1.1/work/demos/Warp/src/devCCS811.c.obj
 .rodata.printSensorDataCCS811.str1.1
                0x0000000000000000       0x51 CMakeFiles/Warp.dir/home/students/rr632/Warp-firmware/build/ksdk1.1/work/demos/Warp/src/devCCS811.c.obj
 .text.printSensorDataCCS811
                0x0000000000000000      0x118 CMakeFiles/Warp.dir/home/students/rr632/Warp-firmware/build/ksdk1.1/work/demos/Warp/src/devCCS811.c.obj
 .comment       0x0000000000000000       0x5a CMakeFiles/Warp.dir/home/students/rr632/Warp-firmware/build/ksdk1.1/work/demos/Warp/src/devCCS811.c.obj
 .ARM.attributes
                0x0000000000000000       0x2c CMakeFiles/Warp.dir/home/students/rr632/Warp-firmware/build/ksdk1.1/work/demos/Warp/src/devCCS811.c.obj
 .text          0x0000000000000000        0x0 CMakeFiles/Warp.dir/home/students/rr632/Warp-firmware/build/ksdk1.1/work/demos/Warp/src/devAMG8834.c.obj
 .data          0x0000000000000000        0x0 CMakeFiles/Warp.dir/home/students/rr632/Warp-firmware/build/ksdk1.1/work/demos/Warp/src/devAMG8834.c.obj
 .bss           0x0000000000000000        0x0 CMakeFiles/Warp.dir/home/students/rr632/Warp-firmware/build/ksdk1.1/work/demos/Warp/src/devAMG8834.c.obj
 .text.initAMG8834
                0x0000000000000000        0xc CMakeFiles/Warp.dir/home/students/rr632/Warp-firmware/build/ksdk1.1/work/demos/Warp/src/devAMG8834.c.obj
 .text.writeSensorRegisterAMG8834
                0x0000000000000000       0x70 CMakeFiles/Warp.dir/home/students/rr632/Warp-firmware/build/ksdk1.1/work/demos/Warp/src/devAMG8834.c.obj
 .text.configureSensorAMG8834
                0x0000000000000000       0x34 CMakeFiles/Warp.dir/home/students/rr632/Warp-firmware/build/ksdk1.1/work/demos/Warp/src/devAMG8834.c.obj
 .rodata.readSensorRegisterAMG8834.str1.1
                0x0000000000000000        0x2 CMakeFiles/Warp.dir/home/students/rr632/Warp-firmware/build/ksdk1.1/work/demos/Warp/src/devAMG8834.c.obj
 .text.readSensorRegisterAMG8834
                0x0000000000000000       0x64 CMakeFiles/Warp.dir/home/students/rr632/Warp-firmware/build/ksdk1.1/work/demos/Warp/src/devAMG8834.c.obj
 .rodata.printSensorDataAMG8834.str1.1
                0x0000000000000000       0x1c CMakeFiles/Warp.dir/home/students/rr632/Warp-firmware/build/ksdk1.1/work/demos/Warp/src/devAMG8834.c.obj
 .text.printSensorDataAMG8834
                0x0000000000000000       0xc8 CMakeFiles/Warp.dir/home/students/rr632/Warp-firmware/build/ksdk1.1/work/demos/Warp/src/devAMG8834.c.obj
 .comment       0x0000000000000000       0x5a CMakeFiles/Warp.dir/home/students/rr632/Warp-firmware/build/ksdk1.1/work/demos/Warp/src/devAMG8834.c.obj
 .ARM.attributes
                0x0000000000000000       0x2c CMakeFiles/Warp.dir/home/students/rr632/Warp-firmware/build/ksdk1.1/work/demos/Warp/src/devAMG8834.c.obj
 .text          0x0000000000000000        0x0 CMakeFiles/Warp.dir/home/students/rr632/Warp-firmware/build/ksdk1.1/work/demos/Warp/src/devRV8803C7.c.obj
 .data          0x0000000000000000        0x0 CMakeFiles/Warp.dir/home/students/rr632/Warp-firmware/build/ksdk1.1/work/demos/Warp/src/devRV8803C7.c.obj
 .bss           0x0000000000000000        0x0 CMakeFiles/Warp.dir/home/students/rr632/Warp-firmware/build/ksdk1.1/work/demos/Warp/src/devRV8803C7.c.obj
 .text.readRTCRegisterRV8803C7.part.0
                0x0000000000000000       0x58 CMakeFiles/Warp.dir/home/students/rr632/Warp-firmware/build/ksdk1.1/work/demos/Warp/src/devRV8803C7.c.obj
 .text.writeRTCRegisterRV8803C7.part.0
                0x0000000000000000       0x5c CMakeFiles/Warp.dir/home/students/rr632/Warp-firmware/build/ksdk1.1/work/demos/Warp/src/devRV8803C7.c.obj
 .text.writeRTCRegistersRV8803C7.part.0
                0x0000000000000000       0x5c CMakeFiles/Warp.dir/home/students/rr632/Warp-firmware/build/ksdk1.1/work/demos/Warp/src/devRV8803C7.c.obj
 .text.initRV8803C7
                0x0000000000000000        0xc CMakeFiles/Warp.dir/home/students/rr632/Warp-firmware/build/ksdk1.1/work/demos/Warp/src/devRV8803C7.c.obj
 .text.readRTCRegisterRV8803C7
                0x0000000000000000       0x12 CMakeFiles/Warp.dir/home/students/rr632/Warp-firmware/build/ksdk1.1/work/demos/Warp/src/devRV8803C7.c.obj
 .text.readRTCRegistersRV8803C7
                0x0000000000000000       0x60 CMakeFiles/Warp.dir/home/students/rr632/Warp-firmware/build/ksdk1.1/work/demos/Warp/src/devRV8803C7.c.obj
 .text.writeRTCRegisterRV8803C7
                0x0000000000000000       0x12 CMakeFiles/Warp.dir/home/students/rr632/Warp-firmware/build/ksdk1.1/work/demos/Warp/src/devRV8803C7.c.obj
 .text.writeRTCRegistersRV8803C7
                0x0000000000000000       0x12 CMakeFiles/Warp.dir/home/students/rr632/Warp-firmware/build/ksdk1.1/work/demos/Warp/src/devRV8803C7.c.obj
 .text.bin2bcd  0x0000000000000000       0x32 CMakeFiles/Warp.dir/home/students/rr632/Warp-firmware/build/ksdk1.1/work/demos/Warp/src/devRV8803C7.c.obj
 .text.date2weekday
                0x0000000000000000       0x40 CMakeFiles/Warp.dir/home/students/rr632/Warp-firmware/build/ksdk1.1/work/demos/Warp/src/devRV8803C7.c.obj
 .text.setRTCTimeRV8803C7
                0x0000000000000000       0xc8 CMakeFiles/Warp.dir/home/students/rr632/Warp-firmware/build/ksdk1.1/work/demos/Warp/src/devRV8803C7.c.obj
 .text.setRTCCountdownRV8803C7
                0x0000000000000000       0xb2 CMakeFiles/Warp.dir/home/students/rr632/Warp-firmware/build/ksdk1.1/work/demos/Warp/src/devRV8803C7.c.obj
 .comment       0x0000000000000000       0x5a CMakeFiles/Warp.dir/home/students/rr632/Warp-firmware/build/ksdk1.1/work/demos/Warp/src/devRV8803C7.c.obj
 .ARM.attributes
                0x0000000000000000       0x2c CMakeFiles/Warp.dir/home/students/rr632/Warp-firmware/build/ksdk1.1/work/demos/Warp/src/devRV8803C7.c.obj
 .text          0x0000000000000000        0x0 CMakeFiles/Warp.dir/home/students/rr632/Warp-firmware/build/ksdk1.1/work/demos/Warp/src/devBGX.c.obj
 .data          0x0000000000000000        0x0 CMakeFiles/Warp.dir/home/students/rr632/Warp-firmware/build/ksdk1.1/work/demos/Warp/src/devBGX.c.obj
 .bss           0x0000000000000000        0x0 CMakeFiles/Warp.dir/home/students/rr632/Warp-firmware/build/ksdk1.1/work/demos/Warp/src/devBGX.c.obj
 .text.uartRxCallback
                0x0000000000000000        0x2 CMakeFiles/Warp.dir/home/students/rr632/Warp-firmware/build/ksdk1.1/work/demos/Warp/src/devBGX.c.obj
 .text.initBGX  0x0000000000000000       0x54 CMakeFiles/Warp.dir/home/students/rr632/Warp-firmware/build/ksdk1.1/work/demos/Warp/src/devBGX.c.obj
 .text.deinitBGX
                0x0000000000000000        0xc CMakeFiles/Warp.dir/home/students/rr632/Warp-firmware/build/ksdk1.1/work/demos/Warp/src/devBGX.c.obj
 .comment       0x0000000000000000       0x5a CMakeFiles/Warp.dir/home/students/rr632/Warp-firmware/build/ksdk1.1/work/demos/Warp/src/devBGX.c.obj
 .ARM.attributes
                0x0000000000000000       0x2c CMakeFiles/Warp.dir/home/students/rr632/Warp-firmware/build/ksdk1.1/work/demos/Warp/src/devBGX.c.obj
 .text          0x0000000000000000        0x0 CMakeFiles/Warp.dir/home/students/rr632/Warp-firmware/build/ksdk1.1/work/demos/Warp/src/devAS7262.c.obj
 .data          0x0000000000000000        0x0 CMakeFiles/Warp.dir/home/students/rr632/Warp-firmware/build/ksdk1.1/work/demos/Warp/src/devAS7262.c.obj
 .bss           0x0000000000000000        0x0 CMakeFiles/Warp.dir/home/students/rr632/Warp-firmware/build/ksdk1.1/work/demos/Warp/src/devAS7262.c.obj
 .text.initAS7262
                0x0000000000000000        0xc CMakeFiles/Warp.dir/home/students/rr632/Warp-firmware/build/ksdk1.1/work/demos/Warp/src/devAS7262.c.obj
 .rodata.readSensorRegisterAS7262.str1.1
                0x0000000000000000        0x2 CMakeFiles/Warp.dir/home/students/rr632/Warp-firmware/build/ksdk1.1/work/demos/Warp/src/devAS7262.c.obj
 .text.readSensorRegisterAS7262
                0x0000000000000000       0xa0 CMakeFiles/Warp.dir/home/students/rr632/Warp-firmware/build/ksdk1.1/work/demos/Warp/src/devAS7262.c.obj
 .comment       0x0000000000000000       0x5a CMakeFiles/Warp.dir/home/students/rr632/Warp-firmware/build/ksdk1.1/work/demos/Warp/src/devAS7262.c.obj
 .ARM.attributes
                0x0000000000000000       0x2c CMakeFiles/Warp.dir/home/students/rr632/Warp-firmware/build/ksdk1.1/work/demos/Warp/src/devAS7262.c.obj
 .text          0x0000000000000000        0x0 CMakeFiles/Warp.dir/home/students/rr632/Warp-firmware/build/ksdk1.1/work/demos/Warp/src/devAS7263.c.obj
 .data          0x0000000000000000        0x0 CMakeFiles/Warp.dir/home/students/rr632/Warp-firmware/build/ksdk1.1/work/demos/Warp/src/devAS7263.c.obj
 .bss           0x0000000000000000        0x0 CMakeFiles/Warp.dir/home/students/rr632/Warp-firmware/build/ksdk1.1/work/demos/Warp/src/devAS7263.c.obj
 .text.initAS7263
                0x0000000000000000        0xc CMakeFiles/Warp.dir/home/students/rr632/Warp-firmware/build/ksdk1.1/work/demos/Warp/src/devAS7263.c.obj
 .rodata.readSensorRegisterAS7263.str1.1
                0x0000000000000000        0x2 CMakeFiles/Warp.dir/home/students/rr632/Warp-firmware/build/ksdk1.1/work/demos/Warp/src/devAS7263.c.obj
 .text.readSensorRegisterAS7263
                0x0000000000000000      0x108 CMakeFiles/Warp.dir/home/students/rr632/Warp-firmware/build/ksdk1.1/work/demos/Warp/src/devAS7263.c.obj
 .comment       0x0000000000000000       0x5a CMakeFiles/Warp.dir/home/students/rr632/Warp-firmware/build/ksdk1.1/work/demos/Warp/src/devAS7263.c.obj
 .ARM.attributes
                0x0000000000000000       0x2c CMakeFiles/Warp.dir/home/students/rr632/Warp-firmware/build/ksdk1.1/work/demos/Warp/src/devAS7263.c.obj
 .text          0x0000000000000000        0x0 CMakeFiles/Warp.dir/home/students/rr632/Warp-firmware/build/ksdk1.1/work/demos/Warp/src/SEGGER_RTT.c.obj
 .data          0x0000000000000000        0x0 CMakeFiles/Warp.dir/home/students/rr632/Warp-firmware/build/ksdk1.1/work/demos/Warp/src/SEGGER_RTT.c.obj
 .bss           0x0000000000000000        0x0 CMakeFiles/Warp.dir/home/students/rr632/Warp-firmware/build/ksdk1.1/work/demos/Warp/src/SEGGER_RTT.c.obj
 .text._PostTerminalSwitch.constprop.0
                0x0000000000000000       0x24 CMakeFiles/Warp.dir/home/students/rr632/Warp-firmware/build/ksdk1.1/work/demos/Warp/src/SEGGER_RTT.c.obj
 .text.SEGGER_RTT_ReadNoLock
                0x0000000000000000       0xa4 CMakeFiles/Warp.dir/home/students/rr632/Warp-firmware/build/ksdk1.1/work/demos/Warp/src/SEGGER_RTT.c.obj
 .text.SEGGER_RTT_Read
                0x0000000000000000       0x1a CMakeFiles/Warp.dir/home/students/rr632/Warp-firmware/build/ksdk1.1/work/demos/Warp/src/SEGGER_RTT.c.obj
 .text.SEGGER_RTT_WriteWithOverwriteNoLock
                0x0000000000000000       0xc4 CMakeFiles/Warp.dir/home/students/rr632/Warp-firmware/build/ksdk1.1/work/demos/Warp/src/SEGGER_RTT.c.obj
 .text.SEGGER_RTT_WriteSkipNoLock
                0x0000000000000000       0x98 CMakeFiles/Warp.dir/home/students/rr632/Warp-firmware/build/ksdk1.1/work/demos/Warp/src/SEGGER_RTT.c.obj
 .text.SEGGER_RTT_PutCharSkipNoLock
                0x0000000000000000       0x40 CMakeFiles/Warp.dir/home/students/rr632/Warp-firmware/build/ksdk1.1/work/demos/Warp/src/SEGGER_RTT.c.obj
 .text.SEGGER_RTT_PutCharSkip
                0x0000000000000000       0x5c CMakeFiles/Warp.dir/home/students/rr632/Warp-firmware/build/ksdk1.1/work/demos/Warp/src/SEGGER_RTT.c.obj
 .text.SEGGER_RTT_PutChar
                0x0000000000000000       0x6c CMakeFiles/Warp.dir/home/students/rr632/Warp-firmware/build/ksdk1.1/work/demos/Warp/src/SEGGER_RTT.c.obj
 .text.SEGGER_RTT_GetKey
                0x0000000000000000       0x1e CMakeFiles/Warp.dir/home/students/rr632/Warp-firmware/build/ksdk1.1/work/demos/Warp/src/SEGGER_RTT.c.obj
 .text.SEGGER_RTT_WaitKey
                0x0000000000000000        0xc CMakeFiles/Warp.dir/home/students/rr632/Warp-firmware/build/ksdk1.1/work/demos/Warp/src/SEGGER_RTT.c.obj
 .text.SEGGER_RTT_HasKey
                0x0000000000000000       0x20 CMakeFiles/Warp.dir/home/students/rr632/Warp-firmware/build/ksdk1.1/work/demos/Warp/src/SEGGER_RTT.c.obj
 .text.SEGGER_RTT_HasData
                0x0000000000000000       0x14 CMakeFiles/Warp.dir/home/students/rr632/Warp-firmware/build/ksdk1.1/work/demos/Warp/src/SEGGER_RTT.c.obj
 .text.SEGGER_RTT_HasDataUp
                0x0000000000000000       0x14 CMakeFiles/Warp.dir/home/students/rr632/Warp-firmware/build/ksdk1.1/work/demos/Warp/src/SEGGER_RTT.c.obj
 .text.SEGGER_RTT_AllocDownBuffer
                0x0000000000000000       0x60 CMakeFiles/Warp.dir/home/students/rr632/Warp-firmware/build/ksdk1.1/work/demos/Warp/src/SEGGER_RTT.c.obj
 .text.SEGGER_RTT_AllocUpBuffer
                0x0000000000000000       0x68 CMakeFiles/Warp.dir/home/students/rr632/Warp-firmware/build/ksdk1.1/work/demos/Warp/src/SEGGER_RTT.c.obj
 .text.SEGGER_RTT_ConfigDownBuffer
                0x0000000000000000       0x5c CMakeFiles/Warp.dir/home/students/rr632/Warp-firmware/build/ksdk1.1/work/demos/Warp/src/SEGGER_RTT.c.obj
 .text.SEGGER_RTT_SetNameUpBuffer
                0x0000000000000000       0x3c CMakeFiles/Warp.dir/home/students/rr632/Warp-firmware/build/ksdk1.1/work/demos/Warp/src/SEGGER_RTT.c.obj
 .text.SEGGER_RTT_SetNameDownBuffer
                0x0000000000000000       0x3c CMakeFiles/Warp.dir/home/students/rr632/Warp-firmware/build/ksdk1.1/work/demos/Warp/src/SEGGER_RTT.c.obj
 .text.SEGGER_RTT_SetFlagsUpBuffer
                0x0000000000000000       0x3c CMakeFiles/Warp.dir/home/students/rr632/Warp-firmware/build/ksdk1.1/work/demos/Warp/src/SEGGER_RTT.c.obj
 .text.SEGGER_RTT_SetFlagsDownBuffer
                0x0000000000000000       0x3c CMakeFiles/Warp.dir/home/students/rr632/Warp-firmware/build/ksdk1.1/work/demos/Warp/src/SEGGER_RTT.c.obj
 .text.SEGGER_RTT_Init
                0x0000000000000000        0x8 CMakeFiles/Warp.dir/home/students/rr632/Warp-firmware/build/ksdk1.1/work/demos/Warp/src/SEGGER_RTT.c.obj
 .text.SEGGER_RTT_SetTerminal
                0x0000000000000000       0x7c CMakeFiles/Warp.dir/home/students/rr632/Warp-firmware/build/ksdk1.1/work/demos/Warp/src/SEGGER_RTT.c.obj
 .text.SEGGER_RTT_TerminalOut
                0x0000000000000000       0xa8 CMakeFiles/Warp.dir/home/students/rr632/Warp-firmware/build/ksdk1.1/work/demos/Warp/src/SEGGER_RTT.c.obj
 .bss._ActiveTerminal
                0x0000000000000000        0x1 CMakeFiles/Warp.dir/home/students/rr632/Warp-firmware/build/ksdk1.1/work/demos/Warp/src/SEGGER_RTT.c.obj
 .rodata._aTerminalId
                0x0000000000000000       0x10 CMakeFiles/Warp.dir/home/students/rr632/Warp-firmware/build/ksdk1.1/work/demos/Warp/src/SEGGER_RTT.c.obj
 .text          0x0000000000000000        0x0 CMakeFiles/Warp.dir/home/students/rr632/Warp-firmware/build/ksdk1.1/work/demos/Warp/src/SEGGER_RTT_printf.c.obj
 .data          0x0000000000000000        0x0 CMakeFiles/Warp.dir/home/students/rr632/Warp-firmware/build/ksdk1.1/work/demos/Warp/src/SEGGER_RTT_printf.c.obj
 .bss           0x0000000000000000        0x0 CMakeFiles/Warp.dir/home/students/rr632/Warp-firmware/build/ksdk1.1/work/demos/Warp/src/SEGGER_RTT_printf.c.obj
 .text          0x0000000000000000        0x0 CMakeFiles/Warp.dir/home/students/rr632/Warp-firmware/build/ksdk1.1/work/platform/drivers/src/i2c/fsl_i2c_irq.c.obj
 .data          0x0000000000000000        0x0 CMakeFiles/Warp.dir/home/students/rr632/Warp-firmware/build/ksdk1.1/work/platform/drivers/src/i2c/fsl_i2c_irq.c.obj
 .bss           0x0000000000000000        0x0 CMakeFiles/Warp.dir/home/students/rr632/Warp-firmware/build/ksdk1.1/work/platform/drivers/src/i2c/fsl_i2c_irq.c.obj
 .text          0x0000000000000000        0x0 CMakeFiles/Warp.dir/home/students/rr632/Warp-firmware/build/ksdk1.1/work/platform/drivers/src/spi/fsl_spi_irq.c.obj
 .data          0x0000000000000000        0x0 CMakeFiles/Warp.dir/home/students/rr632/Warp-firmware/build/ksdk1.1/work/platform/drivers/src/spi/fsl_spi_irq.c.obj
 .bss           0x0000000000000000        0x0 CMakeFiles/Warp.dir/home/students/rr632/Warp-firmware/build/ksdk1.1/work/platform/drivers/src/spi/fsl_spi_irq.c.obj
 .text          0x0000000000000000        0x0 CMakeFiles/Warp.dir/home/students/rr632/Warp-firmware/build/ksdk1.1/work/platform/drivers/src/lpuart/fsl_lpuart_irq.c.obj
 .data          0x0000000000000000        0x0 CMakeFiles/Warp.dir/home/students/rr632/Warp-firmware/build/ksdk1.1/work/platform/drivers/src/lpuart/fsl_lpuart_irq.c.obj
 .bss           0x0000000000000000        0x0 CMakeFiles/Warp.dir/home/students/rr632/Warp-firmware/build/ksdk1.1/work/platform/drivers/src/lpuart/fsl_lpuart_irq.c.obj
 .text          0x0000000000000000        0x0 CMakeFiles/Warp.dir/home/students/rr632/Warp-firmware/build/ksdk1.1/work/platform/startup/MKL03Z4/system_MKL03Z4.c.obj
 .data          0x0000000000000000        0x0 CMakeFiles/Warp.dir/home/students/rr632/Warp-firmware/build/ksdk1.1/work/platform/startup/MKL03Z4/system_MKL03Z4.c.obj
 .bss           0x0000000000000000        0x0 CMakeFiles/Warp.dir/home/students/rr632/Warp-firmware/build/ksdk1.1/work/platform/startup/MKL03Z4/system_MKL03Z4.c.obj
 .text.SystemCoreClockUpdate
                0x0000000000000000       0x5c CMakeFiles/Warp.dir/home/students/rr632/Warp-firmware/build/ksdk1.1/work/platform/startup/MKL03Z4/system_MKL03Z4.c.obj
 .data.SystemCoreClock
                0x0000000000000000        0x4 CMakeFiles/Warp.dir/home/students/rr632/Warp-firmware/build/ksdk1.1/work/platform/startup/MKL03Z4/system_MKL03Z4.c.obj
 .text          0x0000000000000000        0x0 CMakeFiles/Warp.dir/home/students/rr632/Warp-firmware/build/ksdk1.1/work/platform/startup/startup.c.obj
 .data          0x0000000000000000        0x0 CMakeFiles/Warp.dir/home/students/rr632/Warp-firmware/build/ksdk1.1/work/platform/startup/startup.c.obj
 .bss           0x0000000000000000        0x0 CMakeFiles/Warp.dir/home/students/rr632/Warp-firmware/build/ksdk1.1/work/platform/startup/startup.c.obj
 .text          0x0000000000000000        0x0 CMakeFiles/Warp.dir/home/students/rr632/Warp-firmware/build/ksdk1.1/work/boards/Warp/gpio_pins.c.obj
 .data          0x0000000000000000        0x0 CMakeFiles/Warp.dir/home/students/rr632/Warp-firmware/build/ksdk1.1/work/boards/Warp/gpio_pins.c.obj
 .bss           0x0000000000000000        0x0 CMakeFiles/Warp.dir/home/students/rr632/Warp-firmware/build/ksdk1.1/work/boards/Warp/gpio_pins.c.obj
 .data.wakeupPins
                0x0000000000000000       0x10 CMakeFiles/Warp.dir/home/students/rr632/Warp-firmware/build/ksdk1.1/work/boards/Warp/gpio_pins.c.obj
 .text          0x0000000000000000        0x0 ../../../../lib/ksdk_platform_lib/armgcc/KL03Z4/release/libksdk_platform.a(fsl_os_abstraction_bm.c.obj)
 .data          0x0000000000000000        0x0 ../../../../lib/ksdk_platform_lib/armgcc/KL03Z4/release/libksdk_platform.a(fsl_os_abstraction_bm.c.obj)
 .bss           0x0000000000000000        0x0 ../../../../lib/ksdk_platform_lib/armgcc/KL03Z4/release/libksdk_platform.a(fsl_os_abstraction_bm.c.obj)
 .text.OSA_SemaDestroy
                0x0000000000000000        0x4 ../../../../lib/ksdk_platform_lib/armgcc/KL03Z4/release/libksdk_platform.a(fsl_os_abstraction_bm.c.obj)
 .text.OSA_MutexCreate
                0x0000000000000000        0xe ../../../../lib/ksdk_platform_lib/armgcc/KL03Z4/release/libksdk_platform.a(fsl_os_abstraction_bm.c.obj)
 .text.OSA_MutexUnlock
                0x0000000000000000       0x14 ../../../../lib/ksdk_platform_lib/armgcc/KL03Z4/release/libksdk_platform.a(fsl_os_abstraction_bm.c.obj)
 .text.OSA_MutexDestroy
                0x0000000000000000        0x4 ../../../../lib/ksdk_platform_lib/armgcc/KL03Z4/release/libksdk_platform.a(fsl_os_abstraction_bm.c.obj)
 .text.OSA_EventCreate
                0x0000000000000000       0x10 ../../../../lib/ksdk_platform_lib/armgcc/KL03Z4/release/libksdk_platform.a(fsl_os_abstraction_bm.c.obj)
 .text.OSA_EventGetFlags
                0x0000000000000000        0x4 ../../../../lib/ksdk_platform_lib/armgcc/KL03Z4/release/libksdk_platform.a(fsl_os_abstraction_bm.c.obj)
 .text.OSA_EventClear
                0x0000000000000000       0x18 ../../../../lib/ksdk_platform_lib/armgcc/KL03Z4/release/libksdk_platform.a(fsl_os_abstraction_bm.c.obj)
 .text.OSA_EventDestroy
                0x0000000000000000        0x4 ../../../../lib/ksdk_platform_lib/armgcc/KL03Z4/release/libksdk_platform.a(fsl_os_abstraction_bm.c.obj)
 .text.OSA_TaskCreate
                0x0000000000000000       0x34 ../../../../lib/ksdk_platform_lib/armgcc/KL03Z4/release/libksdk_platform.a(fsl_os_abstraction_bm.c.obj)
 .text.OSA_TaskDestroy
                0x0000000000000000       0x2c ../../../../lib/ksdk_platform_lib/armgcc/KL03Z4/release/libksdk_platform.a(fsl_os_abstraction_bm.c.obj)
 .text.OSA_TaskYield
                0x0000000000000000        0x4 ../../../../lib/ksdk_platform_lib/armgcc/KL03Z4/release/libksdk_platform.a(fsl_os_abstraction_bm.c.obj)
 .text.OSA_TaskGetHandler
                0x0000000000000000        0xc ../../../../lib/ksdk_platform_lib/armgcc/KL03Z4/release/libksdk_platform.a(fsl_os_abstraction_bm.c.obj)
 .text.OSA_TaskGetPriority
                0x0000000000000000        0x4 ../../../../lib/ksdk_platform_lib/armgcc/KL03Z4/release/libksdk_platform.a(fsl_os_abstraction_bm.c.obj)
 .text.OSA_TaskSetPriority
                0x0000000000000000        0x4 ../../../../lib/ksdk_platform_lib/armgcc/KL03Z4/release/libksdk_platform.a(fsl_os_abstraction_bm.c.obj)
 .text.OSA_MsgQCreate
                0x0000000000000000       0x16 ../../../../lib/ksdk_platform_lib/armgcc/KL03Z4/release/libksdk_platform.a(fsl_os_abstraction_bm.c.obj)
 .text.OSA_MsgQPut
                0x0000000000000000       0x66 ../../../../lib/ksdk_platform_lib/armgcc/KL03Z4/release/libksdk_platform.a(fsl_os_abstraction_bm.c.obj)
 .text.OSA_MsgQDestroy
                0x0000000000000000        0x4 ../../../../lib/ksdk_platform_lib/armgcc/KL03Z4/release/libksdk_platform.a(fsl_os_abstraction_bm.c.obj)
 .text.OSA_MemAlloc
                0x0000000000000000        0x8 ../../../../lib/ksdk_platform_lib/armgcc/KL03Z4/release/libksdk_platform.a(fsl_os_abstraction_bm.c.obj)
 .text.OSA_MemAllocZero
                0x0000000000000000        0xc ../../../../lib/ksdk_platform_lib/armgcc/KL03Z4/release/libksdk_platform.a(fsl_os_abstraction_bm.c.obj)
 .text.OSA_MemFree
                0x0000000000000000        0xa ../../../../lib/ksdk_platform_lib/armgcc/KL03Z4/release/libksdk_platform.a(fsl_os_abstraction_bm.c.obj)
 .text.OSA_MsgQGet
                0x0000000000000000       0x6e ../../../../lib/ksdk_platform_lib/armgcc/KL03Z4/release/libksdk_platform.a(fsl_os_abstraction_bm.c.obj)
 .text.OSA_MutexLock
                0x0000000000000000       0x76 ../../../../lib/ksdk_platform_lib/armgcc/KL03Z4/release/libksdk_platform.a(fsl_os_abstraction_bm.c.obj)
 .text.OSA_EventWait
                0x0000000000000000       0x8e ../../../../lib/ksdk_platform_lib/armgcc/KL03Z4/release/libksdk_platform.a(fsl_os_abstraction_bm.c.obj)
 .text.OSA_InstallIntHandler
                0x0000000000000000        0xc ../../../../lib/ksdk_platform_lib/armgcc/KL03Z4/release/libksdk_platform.a(fsl_os_abstraction_bm.c.obj)
 .text.OSA_Start
                0x0000000000000000       0x24 ../../../../lib/ksdk_platform_lib/armgcc/KL03Z4/release/libksdk_platform.a(fsl_os_abstraction_bm.c.obj)
 .text.OSA_PollAllOtherTasks
                0x0000000000000000       0x2c ../../../../lib/ksdk_platform_lib/armgcc/KL03Z4/release/libksdk_platform.a(fsl_os_abstraction_bm.c.obj)
 .bss.g_curTask
                0x0000000000000000        0x4 ../../../../lib/ksdk_platform_lib/armgcc/KL03Z4/release/libksdk_platform.a(fsl_os_abstraction_bm.c.obj)
 .text          0x0000000000000000        0x0 ../../../../lib/ksdk_platform_lib/armgcc/KL03Z4/release/libksdk_platform.a(fsl_clock_manager.c.obj)
 .data          0x0000000000000000        0x0 ../../../../lib/ksdk_platform_lib/armgcc/KL03Z4/release/libksdk_platform.a(fsl_clock_manager.c.obj)
 .bss           0x0000000000000000        0x0 ../../../../lib/ksdk_platform_lib/armgcc/KL03Z4/release/libksdk_platform.a(fsl_clock_manager.c.obj)
 .text.CLOCK_SYS_GetErrorCallback
                0x0000000000000000       0x18 ../../../../lib/ksdk_platform_lib/armgcc/KL03Z4/release/libksdk_platform.a(fsl_clock_manager.c.obj)
 .text          0x0000000000000000        0x0 ../../../../lib/ksdk_platform_lib/armgcc/KL03Z4/release/libksdk_platform.a(fsl_clock_MKL03Z4.c.obj)
 .data          0x0000000000000000        0x0 ../../../../lib/ksdk_platform_lib/armgcc/KL03Z4/release/libksdk_platform.a(fsl_clock_MKL03Z4.c.obj)
 .bss           0x0000000000000000        0x0 ../../../../lib/ksdk_platform_lib/armgcc/KL03Z4/release/libksdk_platform.a(fsl_clock_MKL03Z4.c.obj)
 .text.SIM_HAL_GetGateCmd.constprop.0
                0x0000000000000000       0x28 ../../../../lib/ksdk_platform_lib/armgcc/KL03Z4/release/libksdk_platform.a(fsl_clock_MKL03Z4.c.obj)
 .text.SIM_HAL_DisableClock.constprop.0
                0x0000000000000000       0x24 ../../../../lib/ksdk_platform_lib/armgcc/KL03Z4/release/libksdk_platform.a(fsl_clock_MKL03Z4.c.obj)
 .text.CLOCK_SYS_GetOsc0ExternalRefClockFreq
                0x0000000000000000       0x20 ../../../../lib/ksdk_platform_lib/armgcc/KL03Z4/release/libksdk_platform.a(fsl_clock_MKL03Z4.c.obj)
 .text.CLOCK_SYS_GetRtcOutFreq
                0x0000000000000000       0x18 ../../../../lib/ksdk_platform_lib/armgcc/KL03Z4/release/libksdk_platform.a(fsl_clock_MKL03Z4.c.obj)
 .text.CLOCK_SYS_GetFreq
                0x0000000000000000       0x70 ../../../../lib/ksdk_platform_lib/armgcc/KL03Z4/release/libksdk_platform.a(fsl_clock_MKL03Z4.c.obj)
 .text.CLOCK_SYS_GetTpmFreq
                0x0000000000000000       0x40 ../../../../lib/ksdk_platform_lib/armgcc/KL03Z4/release/libksdk_platform.a(fsl_clock_MKL03Z4.c.obj)
 .text.CLOCK_SYS_GetLpuartFreq
                0x0000000000000000       0x40 ../../../../lib/ksdk_platform_lib/armgcc/KL03Z4/release/libksdk_platform.a(fsl_clock_MKL03Z4.c.obj)
 .text.CLOCK_SYS_GetLptmrFreq
                0x0000000000000000       0x30 ../../../../lib/ksdk_platform_lib/armgcc/KL03Z4/release/libksdk_platform.a(fsl_clock_MKL03Z4.c.obj)
 .text.CLOCK_SYS_GetTpmExternalFreq
                0x0000000000000000       0x20 ../../../../lib/ksdk_platform_lib/armgcc/KL03Z4/release/libksdk_platform.a(fsl_clock_MKL03Z4.c.obj)
 .text.CLOCK_SYS_DisablePortClock
                0x0000000000000000       0x10 ../../../../lib/ksdk_platform_lib/armgcc/KL03Z4/release/libksdk_platform.a(fsl_clock_MKL03Z4.c.obj)
 .text.CLOCK_SYS_GetPortGateCmd
                0x0000000000000000       0x10 ../../../../lib/ksdk_platform_lib/armgcc/KL03Z4/release/libksdk_platform.a(fsl_clock_MKL03Z4.c.obj)
 .text.CLOCK_SYS_EnableAdcClock
                0x0000000000000000        0xa ../../../../lib/ksdk_platform_lib/armgcc/KL03Z4/release/libksdk_platform.a(fsl_clock_MKL03Z4.c.obj)
 .text.CLOCK_SYS_DisableAdcClock
                0x0000000000000000        0xa ../../../../lib/ksdk_platform_lib/armgcc/KL03Z4/release/libksdk_platform.a(fsl_clock_MKL03Z4.c.obj)
 .text.CLOCK_SYS_GetAdcGateCmd
                0x0000000000000000        0xa ../../../../lib/ksdk_platform_lib/armgcc/KL03Z4/release/libksdk_platform.a(fsl_clock_MKL03Z4.c.obj)
 .text.CLOCK_SYS_EnableSpiClock
                0x0000000000000000        0xa ../../../../lib/ksdk_platform_lib/armgcc/KL03Z4/release/libksdk_platform.a(fsl_clock_MKL03Z4.c.obj)
 .text.CLOCK_SYS_DisableSpiClock
                0x0000000000000000        0xa ../../../../lib/ksdk_platform_lib/armgcc/KL03Z4/release/libksdk_platform.a(fsl_clock_MKL03Z4.c.obj)
 .text.CLOCK_SYS_GetSpiGateCmd
                0x0000000000000000        0xa ../../../../lib/ksdk_platform_lib/armgcc/KL03Z4/release/libksdk_platform.a(fsl_clock_MKL03Z4.c.obj)
 .text.CLOCK_SYS_DisableI2cClock
                0x0000000000000000        0xa ../../../../lib/ksdk_platform_lib/armgcc/KL03Z4/release/libksdk_platform.a(fsl_clock_MKL03Z4.c.obj)
 .text.CLOCK_SYS_GetI2cGateCmd
                0x0000000000000000        0xa ../../../../lib/ksdk_platform_lib/armgcc/KL03Z4/release/libksdk_platform.a(fsl_clock_MKL03Z4.c.obj)
 .text.CLOCK_SYS_EnableLpuartClock
                0x0000000000000000        0xa ../../../../lib/ksdk_platform_lib/armgcc/KL03Z4/release/libksdk_platform.a(fsl_clock_MKL03Z4.c.obj)
 .text.CLOCK_SYS_DisableLpuartClock
                0x0000000000000000        0xa ../../../../lib/ksdk_platform_lib/armgcc/KL03Z4/release/libksdk_platform.a(fsl_clock_MKL03Z4.c.obj)
 .text.CLOCK_SYS_GetLpuartGateCmd
                0x0000000000000000        0xa ../../../../lib/ksdk_platform_lib/armgcc/KL03Z4/release/libksdk_platform.a(fsl_clock_MKL03Z4.c.obj)
 .text.CLOCK_SYS_EnableTpmClock
                0x0000000000000000       0x10 ../../../../lib/ksdk_platform_lib/armgcc/KL03Z4/release/libksdk_platform.a(fsl_clock_MKL03Z4.c.obj)
 .text.CLOCK_SYS_DisableTpmClock
                0x0000000000000000       0x10 ../../../../lib/ksdk_platform_lib/armgcc/KL03Z4/release/libksdk_platform.a(fsl_clock_MKL03Z4.c.obj)
 .text.CLOCK_SYS_GetTpmGateCmd
                0x0000000000000000       0x10 ../../../../lib/ksdk_platform_lib/armgcc/KL03Z4/release/libksdk_platform.a(fsl_clock_MKL03Z4.c.obj)
 .bss.g_tpmClkFreq
                0x0000000000000000        0x8 ../../../../lib/ksdk_platform_lib/armgcc/KL03Z4/release/libksdk_platform.a(fsl_clock_MKL03Z4.c.obj)
 .rodata.tpmGateTable
                0x0000000000000000        0x2 ../../../../lib/ksdk_platform_lib/armgcc/KL03Z4/release/libksdk_platform.a(fsl_clock_MKL03Z4.c.obj)
 .text          0x0000000000000000        0x0 ../../../../lib/ksdk_platform_lib/armgcc/KL03Z4/release/libksdk_platform.a(fsl_interrupt_manager.c.obj)
 .data          0x0000000000000000        0x0 ../../../../lib/ksdk_platform_lib/armgcc/KL03Z4/release/libksdk_platform.a(fsl_interrupt_manager.c.obj)
 .bss           0x0000000000000000        0x0 ../../../../lib/ksdk_platform_lib/armgcc/KL03Z4/release/libksdk_platform.a(fsl_interrupt_manager.c.obj)
 .text.INT_SYS_InstallHandler
                0x0000000000000000       0x14 ../../../../lib/ksdk_platform_lib/armgcc/KL03Z4/release/libksdk_platform.a(fsl_interrupt_manager.c.obj)
 .text          0x0000000000000000        0x0 ../../../../lib/ksdk_platform_lib/armgcc/KL03Z4/release/libksdk_platform.a(fsl_power_manager.c.obj)
 .data          0x0000000000000000        0x0 ../../../../lib/ksdk_platform_lib/armgcc/KL03Z4/release/libksdk_platform.a(fsl_power_manager.c.obj)
 .bss           0x0000000000000000        0x0 ../../../../lib/ksdk_platform_lib/armgcc/KL03Z4/release/libksdk_platform.a(fsl_power_manager.c.obj)
 .text.POWER_SYS_Deinit
                0x0000000000000000        0x4 ../../../../lib/ksdk_platform_lib/armgcc/KL03Z4/release/libksdk_platform.a(fsl_power_manager.c.obj)
 .text.POWER_SYS_GetLastMode
                0x0000000000000000       0x30 ../../../../lib/ksdk_platform_lib/armgcc/KL03Z4/release/libksdk_platform.a(fsl_power_manager.c.obj)
 .text.POWER_SYS_GetLastModeConfig
                0x0000000000000000       0x34 ../../../../lib/ksdk_platform_lib/armgcc/KL03Z4/release/libksdk_platform.a(fsl_power_manager.c.obj)
 .text.POWER_SYS_GetErrorCallbackIndex
                0x0000000000000000        0xc ../../../../lib/ksdk_platform_lib/armgcc/KL03Z4/release/libksdk_platform.a(fsl_power_manager.c.obj)
 .text.POWER_SYS_GetErrorCallback
                0x0000000000000000       0x18 ../../../../lib/ksdk_platform_lib/armgcc/KL03Z4/release/libksdk_platform.a(fsl_power_manager.c.obj)
 .text.POWER_SYS_GetVeryLowPowerModeStatus
                0x0000000000000000       0x18 ../../../../lib/ksdk_platform_lib/armgcc/KL03Z4/release/libksdk_platform.a(fsl_power_manager.c.obj)
 .text.POWER_SYS_GetLowLeakageWakeupResetStatus
                0x0000000000000000       0x10 ../../../../lib/ksdk_platform_lib/armgcc/KL03Z4/release/libksdk_platform.a(fsl_power_manager.c.obj)
 .text.POWER_SYS_GetAckIsolation
                0x0000000000000000       0x10 ../../../../lib/ksdk_platform_lib/armgcc/KL03Z4/release/libksdk_platform.a(fsl_power_manager.c.obj)
 .text.POWER_SYS_ClearAckIsolation
                0x0000000000000000       0x14 ../../../../lib/ksdk_platform_lib/armgcc/KL03Z4/release/libksdk_platform.a(fsl_power_manager.c.obj)
 .text.POWER_SYS_SetWakeupPin
                0x0000000000000000       0x3c ../../../../lib/ksdk_platform_lib/armgcc/KL03Z4/release/libksdk_platform.a(fsl_power_manager.c.obj)
 .text.POWER_SYS_GetWakeupPin
                0x0000000000000000       0x10 ../../../../lib/ksdk_platform_lib/armgcc/KL03Z4/release/libksdk_platform.a(fsl_power_manager.c.obj)
 .text.POWER_SYS_GetWakeupPinFlag
                0x0000000000000000       0x10 ../../../../lib/ksdk_platform_lib/armgcc/KL03Z4/release/libksdk_platform.a(fsl_power_manager.c.obj)
 .text.POWER_SYS_ClearWakeupPinFlag
                0x0000000000000000       0x10 ../../../../lib/ksdk_platform_lib/armgcc/KL03Z4/release/libksdk_platform.a(fsl_power_manager.c.obj)
 .bss.gPowerManagerStateSync
                0x0000000000000000        0xc ../../../../lib/ksdk_platform_lib/armgcc/KL03Z4/release/libksdk_platform.a(fsl_power_manager.c.obj)
 .text          0x0000000000000000        0x0 ../../../../lib/ksdk_platform_lib/armgcc/KL03Z4/release/libksdk_platform.a(fsl_gpio_driver.c.obj)
 .data          0x0000000000000000        0x0 ../../../../lib/ksdk_platform_lib/armgcc/KL03Z4/release/libksdk_platform.a(fsl_gpio_driver.c.obj)
 .bss           0x0000000000000000        0x0 ../../../../lib/ksdk_platform_lib/armgcc/KL03Z4/release/libksdk_platform.a(fsl_gpio_driver.c.obj)
 .text.GPIO_DRV_GetPinDir
                0x0000000000000000       0x20 ../../../../lib/ksdk_platform_lib/armgcc/KL03Z4/release/libksdk_platform.a(fsl_gpio_driver.c.obj)
 .text.GPIO_DRV_SetPinDir
                0x0000000000000000       0x20 ../../../../lib/ksdk_platform_lib/armgcc/KL03Z4/release/libksdk_platform.a(fsl_gpio_driver.c.obj)
 .text.GPIO_DRV_WritePinOutput
                0x0000000000000000       0x20 ../../../../lib/ksdk_platform_lib/armgcc/KL03Z4/release/libksdk_platform.a(fsl_gpio_driver.c.obj)
 .text.GPIO_DRV_TogglePinOutput
                0x0000000000000000       0x1c ../../../../lib/ksdk_platform_lib/armgcc/KL03Z4/release/libksdk_platform.a(fsl_gpio_driver.c.obj)
 .text.GPIO_DRV_ReadPinInput
                0x0000000000000000       0x20 ../../../../lib/ksdk_platform_lib/armgcc/KL03Z4/release/libksdk_platform.a(fsl_gpio_driver.c.obj)
 .text.GPIO_DRV_ClearPinIntFlag
                0x0000000000000000       0x24 ../../../../lib/ksdk_platform_lib/armgcc/KL03Z4/release/libksdk_platform.a(fsl_gpio_driver.c.obj)
 .text          0x0000000000000000        0x0 ../../../../lib/ksdk_platform_lib/armgcc/KL03Z4/release/libksdk_platform.a(fsl_i2c_shared_function.c.obj)
 .data          0x0000000000000000        0x0 ../../../../lib/ksdk_platform_lib/armgcc/KL03Z4/release/libksdk_platform.a(fsl_i2c_shared_function.c.obj)
 .bss           0x0000000000000000        0x0 ../../../../lib/ksdk_platform_lib/armgcc/KL03Z4/release/libksdk_platform.a(fsl_i2c_shared_function.c.obj)
 .text          0x0000000000000000        0x0 ../../../../lib/ksdk_platform_lib/armgcc/KL03Z4/release/libksdk_platform.a(fsl_i2c_common.c.obj)
 .data          0x0000000000000000        0x0 ../../../../lib/ksdk_platform_lib/armgcc/KL03Z4/release/libksdk_platform.a(fsl_i2c_common.c.obj)
 .bss           0x0000000000000000        0x0 ../../../../lib/ksdk_platform_lib/armgcc/KL03Z4/release/libksdk_platform.a(fsl_i2c_common.c.obj)
 .text          0x0000000000000000        0x0 ../../../../lib/ksdk_platform_lib/armgcc/KL03Z4/release/libksdk_platform.a(fsl_i2c_master_driver.c.obj)
 .data          0x0000000000000000        0x0 ../../../../lib/ksdk_platform_lib/armgcc/KL03Z4/release/libksdk_platform.a(fsl_i2c_master_driver.c.obj)
 .bss           0x0000000000000000        0x0 ../../../../lib/ksdk_platform_lib/armgcc/KL03Z4/release/libksdk_platform.a(fsl_i2c_master_driver.c.obj)
 .text.I2C_DRV_MasterDeinit
                0x0000000000000000       0x4c ../../../../lib/ksdk_platform_lib/armgcc/KL03Z4/release/libksdk_platform.a(fsl_i2c_master_driver.c.obj)
 .text.I2C_DRV_MasterSendData
                0x0000000000000000       0x18 ../../../../lib/ksdk_platform_lib/armgcc/KL03Z4/release/libksdk_platform.a(fsl_i2c_master_driver.c.obj)
 .text.I2C_DRV_MasterGetSendStatus
                0x0000000000000000       0x28 ../../../../lib/ksdk_platform_lib/armgcc/KL03Z4/release/libksdk_platform.a(fsl_i2c_master_driver.c.obj)
 .text.I2C_DRV_MasterAbortSendData
                0x0000000000000000       0x20 ../../../../lib/ksdk_platform_lib/armgcc/KL03Z4/release/libksdk_platform.a(fsl_i2c_master_driver.c.obj)
 .text.I2C_DRV_MasterReceiveData
                0x0000000000000000       0x18 ../../../../lib/ksdk_platform_lib/armgcc/KL03Z4/release/libksdk_platform.a(fsl_i2c_master_driver.c.obj)
 .text.I2C_DRV_MasterGetReceiveStatus
                0x0000000000000000       0x28 ../../../../lib/ksdk_platform_lib/armgcc/KL03Z4/release/libksdk_platform.a(fsl_i2c_master_driver.c.obj)
 .text          0x0000000000000000        0x0 ../../../../lib/ksdk_platform_lib/armgcc/KL03Z4/release/libksdk_platform.a(fsl_i2c_slave_driver.c.obj)
 .data          0x0000000000000000        0x0 ../../../../lib/ksdk_platform_lib/armgcc/KL03Z4/release/libksdk_platform.a(fsl_i2c_slave_driver.c.obj)
 .bss           0x0000000000000000        0x0 ../../../../lib/ksdk_platform_lib/armgcc/KL03Z4/release/libksdk_platform.a(fsl_i2c_slave_driver.c.obj)
 .text.I2C_DRV_SlaveInit
                0x0000000000000000       0xb4 ../../../../lib/ksdk_platform_lib/armgcc/KL03Z4/release/libksdk_platform.a(fsl_i2c_slave_driver.c.obj)
 .text.I2C_DRV_SlaveDeinit
                0x0000000000000000       0x60 ../../../../lib/ksdk_platform_lib/armgcc/KL03Z4/release/libksdk_platform.a(fsl_i2c_slave_driver.c.obj)
 .text.I2C_DRV_SlaveGetHandler
                0x0000000000000000        0xc ../../../../lib/ksdk_platform_lib/armgcc/KL03Z4/release/libksdk_platform.a(fsl_i2c_slave_driver.c.obj)
 .text.I2C_DRV_SlaveReceiveDataBlocking
                0x0000000000000000       0x90 ../../../../lib/ksdk_platform_lib/armgcc/KL03Z4/release/libksdk_platform.a(fsl_i2c_slave_driver.c.obj)
 .text.I2C_DRV_SlaveReceiveData
                0x0000000000000000       0x60 ../../../../lib/ksdk_platform_lib/armgcc/KL03Z4/release/libksdk_platform.a(fsl_i2c_slave_driver.c.obj)
 .text.I2C_DRV_SlaveSendDataBlocking
                0x0000000000000000       0x80 ../../../../lib/ksdk_platform_lib/armgcc/KL03Z4/release/libksdk_platform.a(fsl_i2c_slave_driver.c.obj)
 .text.I2C_DRV_SlaveSendData
                0x0000000000000000       0x54 ../../../../lib/ksdk_platform_lib/armgcc/KL03Z4/release/libksdk_platform.a(fsl_i2c_slave_driver.c.obj)
 .text.I2C_DRV_SlaveGetTransmitStatus
                0x0000000000000000       0x1c ../../../../lib/ksdk_platform_lib/armgcc/KL03Z4/release/libksdk_platform.a(fsl_i2c_slave_driver.c.obj)
 .text.I2C_DRV_SlaveGetReceiveStatus
                0x0000000000000000       0x1c ../../../../lib/ksdk_platform_lib/armgcc/KL03Z4/release/libksdk_platform.a(fsl_i2c_slave_driver.c.obj)
 .text.I2C_DRV_SlaveAbortReceiveData
                0x0000000000000000       0x54 ../../../../lib/ksdk_platform_lib/armgcc/KL03Z4/release/libksdk_platform.a(fsl_i2c_slave_driver.c.obj)
 .text.I2C_DRV_SlaveAbortSendData
                0x0000000000000000       0x54 ../../../../lib/ksdk_platform_lib/armgcc/KL03Z4/release/libksdk_platform.a(fsl_i2c_slave_driver.c.obj)
 .text          0x0000000000000000        0x0 ../../../../lib/ksdk_platform_lib/armgcc/KL03Z4/release/libksdk_platform.a(fsl_llwu_hal.c.obj)
 .data          0x0000000000000000        0x0 ../../../../lib/ksdk_platform_lib/armgcc/KL03Z4/release/libksdk_platform.a(fsl_llwu_hal.c.obj)
 .bss           0x0000000000000000        0x0 ../../../../lib/ksdk_platform_lib/armgcc/KL03Z4/release/libksdk_platform.a(fsl_llwu_hal.c.obj)
 .text.LLWU_HAL_SetExternalInputPinMode
                0x0000000000000000       0x28 ../../../../lib/ksdk_platform_lib/armgcc/KL03Z4/release/libksdk_platform.a(fsl_llwu_hal.c.obj)
 .text.LLWU_HAL_GetExternalInputPinMode
                0x0000000000000000       0x28 ../../../../lib/ksdk_platform_lib/armgcc/KL03Z4/release/libksdk_platform.a(fsl_llwu_hal.c.obj)
 .text.LLWU_HAL_GetExternalPinWakeupFlag
                0x0000000000000000       0x24 ../../../../lib/ksdk_platform_lib/armgcc/KL03Z4/release/libksdk_platform.a(fsl_llwu_hal.c.obj)
 .text.LLWU_HAL_SetPinFilterMode
                0x0000000000000000       0x38 ../../../../lib/ksdk_platform_lib/armgcc/KL03Z4/release/libksdk_platform.a(fsl_llwu_hal.c.obj)
 .text.LLWU_HAL_GetPinFilterMode
                0x0000000000000000       0x2c ../../../../lib/ksdk_platform_lib/armgcc/KL03Z4/release/libksdk_platform.a(fsl_llwu_hal.c.obj)
 .text.LLWU_HAL_GetFilterDetectFlag
                0x0000000000000000       0x22 ../../../../lib/ksdk_platform_lib/armgcc/KL03Z4/release/libksdk_platform.a(fsl_llwu_hal.c.obj)
 .text.LLWU_HAL_ClearFilterDetectFlag
                0x0000000000000000       0x1c ../../../../lib/ksdk_platform_lib/armgcc/KL03Z4/release/libksdk_platform.a(fsl_llwu_hal.c.obj)
 .text          0x0000000000000000        0x0 ../../../../lib/ksdk_platform_lib/armgcc/KL03Z4/release/libksdk_platform.a(fsl_lpuart_driver.c.obj)
 .data          0x0000000000000000        0x0 ../../../../lib/ksdk_platform_lib/armgcc/KL03Z4/release/libksdk_platform.a(fsl_lpuart_driver.c.obj)
 .bss           0x0000000000000000        0x0 ../../../../lib/ksdk_platform_lib/armgcc/KL03Z4/release/libksdk_platform.a(fsl_lpuart_driver.c.obj)
 .text.LPUART_DRV_StartReceiveData
                0x0000000000000000       0x50 ../../../../lib/ksdk_platform_lib/armgcc/KL03Z4/release/libksdk_platform.a(fsl_lpuart_driver.c.obj)
 .text.LPUART_DRV_Init
                0x0000000000000000       0xc4 ../../../../lib/ksdk_platform_lib/armgcc/KL03Z4/release/libksdk_platform.a(fsl_lpuart_driver.c.obj)
 .text.LPUART_DRV_Deinit
                0x0000000000000000       0x6c ../../../../lib/ksdk_platform_lib/armgcc/KL03Z4/release/libksdk_platform.a(fsl_lpuart_driver.c.obj)
 .text.LPUART_DRV_InstallRxCallback
                0x0000000000000000       0x34 ../../../../lib/ksdk_platform_lib/armgcc/KL03Z4/release/libksdk_platform.a(fsl_lpuart_driver.c.obj)
 .text.LPUART_DRV_SendDataBlocking
                0x0000000000000000       0x58 ../../../../lib/ksdk_platform_lib/armgcc/KL03Z4/release/libksdk_platform.a(fsl_lpuart_driver.c.obj)
 .text.LPUART_DRV_SendData
                0x0000000000000000       0x44 ../../../../lib/ksdk_platform_lib/armgcc/KL03Z4/release/libksdk_platform.a(fsl_lpuart_driver.c.obj)
 .text.LPUART_DRV_GetTransmitStatus
                0x0000000000000000       0x1c ../../../../lib/ksdk_platform_lib/armgcc/KL03Z4/release/libksdk_platform.a(fsl_lpuart_driver.c.obj)
 .text.LPUART_DRV_AbortSendingData
                0x0000000000000000       0x20 ../../../../lib/ksdk_platform_lib/armgcc/KL03Z4/release/libksdk_platform.a(fsl_lpuart_driver.c.obj)
 .text.LPUART_DRV_ReceiveDataBlocking
                0x0000000000000000       0x58 ../../../../lib/ksdk_platform_lib/armgcc/KL03Z4/release/libksdk_platform.a(fsl_lpuart_driver.c.obj)
 .text.LPUART_DRV_ReceiveData
                0x0000000000000000       0x18 ../../../../lib/ksdk_platform_lib/armgcc/KL03Z4/release/libksdk_platform.a(fsl_lpuart_driver.c.obj)
 .text.LPUART_DRV_GetReceiveStatus
                0x0000000000000000       0x1c ../../../../lib/ksdk_platform_lib/armgcc/KL03Z4/release/libksdk_platform.a(fsl_lpuart_driver.c.obj)
 .text.LPUART_DRV_AbortReceivingData
                0x0000000000000000       0x20 ../../../../lib/ksdk_platform_lib/armgcc/KL03Z4/release/libksdk_platform.a(fsl_lpuart_driver.c.obj)
 .text          0x0000000000000000        0x0 ../../../../lib/ksdk_platform_lib/armgcc/KL03Z4/release/libksdk_platform.a(fsl_lpuart_common.c.obj)
 .data          0x0000000000000000        0x0 ../../../../lib/ksdk_platform_lib/armgcc/KL03Z4/release/libksdk_platform.a(fsl_lpuart_common.c.obj)
 .bss           0x0000000000000000        0x0 ../../../../lib/ksdk_platform_lib/armgcc/KL03Z4/release/libksdk_platform.a(fsl_lpuart_common.c.obj)
 .data.g_lpuartRxTxIrqId
                0x0000000000000000        0x1 ../../../../lib/ksdk_platform_lib/armgcc/KL03Z4/release/libksdk_platform.a(fsl_lpuart_common.c.obj)
 .text          0x0000000000000000        0x0 ../../../../lib/ksdk_platform_lib/armgcc/KL03Z4/release/libksdk_platform.a(fsl_mcglite_hal.c.obj)
 .data          0x0000000000000000        0x0 ../../../../lib/ksdk_platform_lib/armgcc/KL03Z4/release/libksdk_platform.a(fsl_mcglite_hal.c.obj)
 .bss           0x0000000000000000        0x0 ../../../../lib/ksdk_platform_lib/armgcc/KL03Z4/release/libksdk_platform.a(fsl_mcglite_hal.c.obj)
 .text.CLOCK_HAL_GetLircDiv1Clk
                0x0000000000000000       0x18 ../../../../lib/ksdk_platform_lib/armgcc/KL03Z4/release/libksdk_platform.a(fsl_mcglite_hal.c.obj)
 .text.CLOCK_HAL_GetInternalRefClk
                0x0000000000000000       0x2c ../../../../lib/ksdk_platform_lib/armgcc/KL03Z4/release/libksdk_platform.a(fsl_mcglite_hal.c.obj)
 .text          0x0000000000000000        0x0 ../../../../lib/ksdk_platform_lib/armgcc/KL03Z4/release/libksdk_platform.a(fsl_mcglite_hal_modes.c.obj)
 .data          0x0000000000000000        0x0 ../../../../lib/ksdk_platform_lib/armgcc/KL03Z4/release/libksdk_platform.a(fsl_mcglite_hal_modes.c.obj)
 .bss           0x0000000000000000        0x0 ../../../../lib/ksdk_platform_lib/armgcc/KL03Z4/release/libksdk_platform.a(fsl_mcglite_hal_modes.c.obj)
 .text          0x0000000000000000        0x0 ../../../../lib/ksdk_platform_lib/armgcc/KL03Z4/release/libksdk_platform.a(fsl_osc_hal.c.obj)
 .data          0x0000000000000000        0x0 ../../../../lib/ksdk_platform_lib/armgcc/KL03Z4/release/libksdk_platform.a(fsl_osc_hal.c.obj)
 .bss           0x0000000000000000        0x0 ../../../../lib/ksdk_platform_lib/armgcc/KL03Z4/release/libksdk_platform.a(fsl_osc_hal.c.obj)
 .text.OSC_HAL_GetExternalRefClkCmd
                0x0000000000000000       0x10 ../../../../lib/ksdk_platform_lib/armgcc/KL03Z4/release/libksdk_platform.a(fsl_osc_hal.c.obj)
 .text.OSC_HAL_GetExternalRefClkInStopModeCmd
                0x0000000000000000       0x10 ../../../../lib/ksdk_platform_lib/armgcc/KL03Z4/release/libksdk_platform.a(fsl_osc_hal.c.obj)
 .text.OSC_HAL_SetCapacitorCmd
                0x0000000000000000       0x3a ../../../../lib/ksdk_platform_lib/armgcc/KL03Z4/release/libksdk_platform.a(fsl_osc_hal.c.obj)
 .text.OSC_HAL_GetCapacitorCmd
                0x0000000000000000       0x2a ../../../../lib/ksdk_platform_lib/armgcc/KL03Z4/release/libksdk_platform.a(fsl_osc_hal.c.obj)
 .text          0x0000000000000000        0x0 ../../../../lib/ksdk_platform_lib/armgcc/KL03Z4/release/libksdk_platform.a(fsl_rtc_hal.c.obj)
 .data          0x0000000000000000        0x0 ../../../../lib/ksdk_platform_lib/armgcc/KL03Z4/release/libksdk_platform.a(fsl_rtc_hal.c.obj)
 .bss           0x0000000000000000        0x0 ../../../../lib/ksdk_platform_lib/armgcc/KL03Z4/release/libksdk_platform.a(fsl_rtc_hal.c.obj)
 .text.RTC_HAL_Disable
                0x0000000000000000       0x20 ../../../../lib/ksdk_platform_lib/armgcc/KL03Z4/release/libksdk_platform.a(fsl_rtc_hal.c.obj)
 .text.RTC_HAL_SetDatetime
                0x0000000000000000       0x16 ../../../../lib/ksdk_platform_lib/armgcc/KL03Z4/release/libksdk_platform.a(fsl_rtc_hal.c.obj)
 .text.RTC_HAL_GetDatetime
                0x0000000000000000        0xe ../../../../lib/ksdk_platform_lib/armgcc/KL03Z4/release/libksdk_platform.a(fsl_rtc_hal.c.obj)
 .text.RTC_HAL_SetAlarm
                0x0000000000000000       0x1c ../../../../lib/ksdk_platform_lib/armgcc/KL03Z4/release/libksdk_platform.a(fsl_rtc_hal.c.obj)
 .text.RTC_HAL_GetAlarm
                0x0000000000000000        0xe ../../../../lib/ksdk_platform_lib/armgcc/KL03Z4/release/libksdk_platform.a(fsl_rtc_hal.c.obj)
 .text          0x0000000000000000        0x0 ../../../../lib/ksdk_platform_lib/armgcc/KL03Z4/release/libksdk_platform.a(fsl_rtc_driver.c.obj)
 .data          0x0000000000000000        0x0 ../../../../lib/ksdk_platform_lib/armgcc/KL03Z4/release/libksdk_platform.a(fsl_rtc_driver.c.obj)
 .bss           0x0000000000000000        0x0 ../../../../lib/ksdk_platform_lib/armgcc/KL03Z4/release/libksdk_platform.a(fsl_rtc_driver.c.obj)
 .text.RTC_DRV_Deinit
                0x0000000000000000       0x4c ../../../../lib/ksdk_platform_lib/armgcc/KL03Z4/release/libksdk_platform.a(fsl_rtc_driver.c.obj)
 .text.RTC_DRV_IsCounterEnabled
                0x0000000000000000       0x1c ../../../../lib/ksdk_platform_lib/armgcc/KL03Z4/release/libksdk_platform.a(fsl_rtc_driver.c.obj)
 .text.RTC_DRV_SetSecsIntCmd
                0x0000000000000000       0x18 ../../../../lib/ksdk_platform_lib/armgcc/KL03Z4/release/libksdk_platform.a(fsl_rtc_driver.c.obj)
 .text.RTC_DRV_GetAlarm
                0x0000000000000000       0x3c ../../../../lib/ksdk_platform_lib/armgcc/KL03Z4/release/libksdk_platform.a(fsl_rtc_driver.c.obj)
 .text.RTC_DRV_InitRepeatAlarm
                0x0000000000000000       0x18 ../../../../lib/ksdk_platform_lib/armgcc/KL03Z4/release/libksdk_platform.a(fsl_rtc_driver.c.obj)
 .text.RTC_DRV_SetAlarmRepeat
                0x0000000000000000       0x30 ../../../../lib/ksdk_platform_lib/armgcc/KL03Z4/release/libksdk_platform.a(fsl_rtc_driver.c.obj)
 .text.RTC_DRV_DeinitRepeatAlarm
                0x0000000000000000        0xc ../../../../lib/ksdk_platform_lib/armgcc/KL03Z4/release/libksdk_platform.a(fsl_rtc_driver.c.obj)
 .text.RTC_DRV_GetAlarmIntCmd
                0x0000000000000000       0x1c ../../../../lib/ksdk_platform_lib/armgcc/KL03Z4/release/libksdk_platform.a(fsl_rtc_driver.c.obj)
 .text.RTC_DRV_SetTimeCompensation
                0x0000000000000000       0x28 ../../../../lib/ksdk_platform_lib/armgcc/KL03Z4/release/libksdk_platform.a(fsl_rtc_driver.c.obj)
 .text.RTC_DRV_GetTimeCompensation
                0x0000000000000000       0x30 ../../../../lib/ksdk_platform_lib/armgcc/KL03Z4/release/libksdk_platform.a(fsl_rtc_driver.c.obj)
 .text.RTC_DRV_AlarmIntAction
                0x0000000000000000       0x58 ../../../../lib/ksdk_platform_lib/armgcc/KL03Z4/release/libksdk_platform.a(fsl_rtc_driver.c.obj)
 .text.RTC_DRV_SecsIntAction
                0x0000000000000000       0x18 ../../../../lib/ksdk_platform_lib/armgcc/KL03Z4/release/libksdk_platform.a(fsl_rtc_driver.c.obj)
 .bss.s_rtcRepeatAlarmState
                0x0000000000000000        0x4 ../../../../lib/ksdk_platform_lib/armgcc/KL03Z4/release/libksdk_platform.a(fsl_rtc_driver.c.obj)
 .text          0x0000000000000000        0x0 ../../../../lib/ksdk_platform_lib/armgcc/KL03Z4/release/libksdk_platform.a(fsl_rtc_common.c.obj)
 .data          0x0000000000000000        0x0 ../../../../lib/ksdk_platform_lib/armgcc/KL03Z4/release/libksdk_platform.a(fsl_rtc_common.c.obj)
 .bss           0x0000000000000000        0x0 ../../../../lib/ksdk_platform_lib/armgcc/KL03Z4/release/libksdk_platform.a(fsl_rtc_common.c.obj)
 .text          0x0000000000000000        0x0 ../../../../lib/ksdk_platform_lib/armgcc/KL03Z4/release/libksdk_platform.a(fsl_sim_hal_MKL03Z4.c.obj)
 .data          0x0000000000000000        0x0 ../../../../lib/ksdk_platform_lib/armgcc/KL03Z4/release/libksdk_platform.a(fsl_sim_hal_MKL03Z4.c.obj)
 .bss           0x0000000000000000        0x0 ../../../../lib/ksdk_platform_lib/armgcc/KL03Z4/release/libksdk_platform.a(fsl_sim_hal_MKL03Z4.c.obj)
 .text.CLOCK_HAL_GetOutDiv
                0x0000000000000000       0x2c ../../../../lib/ksdk_platform_lib/armgcc/KL03Z4/release/libksdk_platform.a(fsl_sim_hal_MKL03Z4.c.obj)
 .text.SIM_HAL_SetAdcTriggerModeOneStep
                0x0000000000000000       0x38 ../../../../lib/ksdk_platform_lib/armgcc/KL03Z4/release/libksdk_platform.a(fsl_sim_hal_MKL03Z4.c.obj)
 .text.SIM_HAL_SetTpmExternalClkPinSelMode
                0x0000000000000000       0x2c ../../../../lib/ksdk_platform_lib/armgcc/KL03Z4/release/libksdk_platform.a(fsl_sim_hal_MKL03Z4.c.obj)
 .text.SIM_HAL_GetTpmExternalClkPinSelMode
                0x0000000000000000       0x28 ../../../../lib/ksdk_platform_lib/armgcc/KL03Z4/release/libksdk_platform.a(fsl_sim_hal_MKL03Z4.c.obj)
 .text          0x0000000000000000        0x0 ../../../../lib/ksdk_platform_lib/armgcc/KL03Z4/release/libksdk_platform.a(fsl_spi_shared_function.c.obj)
 .data          0x0000000000000000        0x0 ../../../../lib/ksdk_platform_lib/armgcc/KL03Z4/release/libksdk_platform.a(fsl_spi_shared_function.c.obj)
 .bss           0x0000000000000000        0x0 ../../../../lib/ksdk_platform_lib/armgcc/KL03Z4/release/libksdk_platform.a(fsl_spi_shared_function.c.obj)
 .text          0x0000000000000000        0x0 ../../../../lib/ksdk_platform_lib/armgcc/KL03Z4/release/libksdk_platform.a(fsl_spi_master_driver.c.obj)
 .data          0x0000000000000000        0x0 ../../../../lib/ksdk_platform_lib/armgcc/KL03Z4/release/libksdk_platform.a(fsl_spi_master_driver.c.obj)
 .bss           0x0000000000000000        0x0 ../../../../lib/ksdk_platform_lib/armgcc/KL03Z4/release/libksdk_platform.a(fsl_spi_master_driver.c.obj)
 .text.SPI_DRV_MasterInit
                0x0000000000000000       0x84 ../../../../lib/ksdk_platform_lib/armgcc/KL03Z4/release/libksdk_platform.a(fsl_spi_master_driver.c.obj)
 .text.SPI_DRV_MasterDeinit
                0x0000000000000000       0x48 ../../../../lib/ksdk_platform_lib/armgcc/KL03Z4/release/libksdk_platform.a(fsl_spi_master_driver.c.obj)
 .text.SPI_DRV_MasterConfigureBus
                0x0000000000000000       0x34 ../../../../lib/ksdk_platform_lib/armgcc/KL03Z4/release/libksdk_platform.a(fsl_spi_master_driver.c.obj)
 .text.SPI_DRV_MasterStartTransfer
                0x0000000000000000       0x84 ../../../../lib/ksdk_platform_lib/armgcc/KL03Z4/release/libksdk_platform.a(fsl_spi_master_driver.c.obj)
 .text.SPI_DRV_MasterTransferBlocking
                0x0000000000000000       0x58 ../../../../lib/ksdk_platform_lib/armgcc/KL03Z4/release/libksdk_platform.a(fsl_spi_master_driver.c.obj)
 .text.SPI_DRV_MasterTransfer
                0x0000000000000000       0x20 ../../../../lib/ksdk_platform_lib/armgcc/KL03Z4/release/libksdk_platform.a(fsl_spi_master_driver.c.obj)
 .text.SPI_DRV_MasterGetTransferStatus
                0x0000000000000000       0x1c ../../../../lib/ksdk_platform_lib/armgcc/KL03Z4/release/libksdk_platform.a(fsl_spi_master_driver.c.obj)
 .text.SPI_DRV_MasterAbortTransfer
                0x0000000000000000       0x20 ../../../../lib/ksdk_platform_lib/armgcc/KL03Z4/release/libksdk_platform.a(fsl_spi_master_driver.c.obj)
 .text          0x0000000000000000        0x0 ../../../../lib/ksdk_platform_lib/armgcc/KL03Z4/release/libksdk_platform.a(fsl_spi_slave_driver.c.obj)
 .data          0x0000000000000000        0x0 ../../../../lib/ksdk_platform_lib/armgcc/KL03Z4/release/libksdk_platform.a(fsl_spi_slave_driver.c.obj)
 .bss           0x0000000000000000        0x0 ../../../../lib/ksdk_platform_lib/armgcc/KL03Z4/release/libksdk_platform.a(fsl_spi_slave_driver.c.obj)
 .text.SPI_DRV_SlaveStartTransfer
                0x0000000000000000       0x6c ../../../../lib/ksdk_platform_lib/armgcc/KL03Z4/release/libksdk_platform.a(fsl_spi_slave_driver.c.obj)
 .text.SPI_DRV_SlaveInit
                0x0000000000000000       0x9c ../../../../lib/ksdk_platform_lib/armgcc/KL03Z4/release/libksdk_platform.a(fsl_spi_slave_driver.c.obj)
 .text.SPI_DRV_SlaveDeinit
                0x0000000000000000       0x58 ../../../../lib/ksdk_platform_lib/armgcc/KL03Z4/release/libksdk_platform.a(fsl_spi_slave_driver.c.obj)
 .text.SPI_DRV_SlaveTransfer
                0x0000000000000000       0x40 ../../../../lib/ksdk_platform_lib/armgcc/KL03Z4/release/libksdk_platform.a(fsl_spi_slave_driver.c.obj)
 .text.SPI_DRV_SlaveAbortTransfer
                0x0000000000000000       0x28 ../../../../lib/ksdk_platform_lib/armgcc/KL03Z4/release/libksdk_platform.a(fsl_spi_slave_driver.c.obj)
 .text.SPI_DRV_SlaveGetTransferStatus
                0x0000000000000000       0x20 ../../../../lib/ksdk_platform_lib/armgcc/KL03Z4/release/libksdk_platform.a(fsl_spi_slave_driver.c.obj)
 .text.SPI_DRV_SlaveTransferBlocking
                0x0000000000000000       0x74 ../../../../lib/ksdk_platform_lib/armgcc/KL03Z4/release/libksdk_platform.a(fsl_spi_slave_driver.c.obj)
 .text          0x0000000000000000        0x0 ../../../../lib/ksdk_platform_lib/armgcc/KL03Z4/release/libksdk_platform.a(fsl_spi_common.c.obj)
 .data          0x0000000000000000        0x0 ../../../../lib/ksdk_platform_lib/armgcc/KL03Z4/release/libksdk_platform.a(fsl_spi_common.c.obj)
 .bss           0x0000000000000000        0x0 ../../../../lib/ksdk_platform_lib/armgcc/KL03Z4/release/libksdk_platform.a(fsl_spi_common.c.obj)
 .rodata.g_spiIrqId
                0x0000000000000000        0x1 ../../../../lib/ksdk_platform_lib/armgcc/KL03Z4/release/libksdk_platform.a(fsl_spi_common.c.obj)
 .text          0x0000000000000000        0x0 ../../../../lib/ksdk_platform_lib/armgcc/KL03Z4/release/libksdk_platform.a(fsl_smc_hal.c.obj)
 .data          0x0000000000000000        0x0 ../../../../lib/ksdk_platform_lib/armgcc/KL03Z4/release/libksdk_platform.a(fsl_smc_hal.c.obj)
 .bss           0x0000000000000000        0x0 ../../../../lib/ksdk_platform_lib/armgcc/KL03Z4/release/libksdk_platform.a(fsl_smc_hal.c.obj)
 .text.SMC_HAL_SetProtection
                0x0000000000000000       0x1e ../../../../lib/ksdk_platform_lib/armgcc/KL03Z4/release/libksdk_platform.a(fsl_smc_hal.c.obj)
 .text.SMC_HAL_SetProtectionMode
                0x0000000000000000       0x2c ../../../../lib/ksdk_platform_lib/armgcc/KL03Z4/release/libksdk_platform.a(fsl_smc_hal.c.obj)
 .text.SMC_HAL_GetRunMode
                0x0000000000000000       0x10 ../../../../lib/ksdk_platform_lib/armgcc/KL03Z4/release/libksdk_platform.a(fsl_smc_hal.c.obj)
 .text.SMC_HAL_SetStopMode
                0x0000000000000000       0x10 ../../../../lib/ksdk_platform_lib/armgcc/KL03Z4/release/libksdk_platform.a(fsl_smc_hal.c.obj)
 .text.SMC_HAL_GetStopMode
                0x0000000000000000       0x10 ../../../../lib/ksdk_platform_lib/armgcc/KL03Z4/release/libksdk_platform.a(fsl_smc_hal.c.obj)
 .text.SMC_HAL_SetStopSubMode
                0x0000000000000000       0x10 ../../../../lib/ksdk_platform_lib/armgcc/KL03Z4/release/libksdk_platform.a(fsl_smc_hal.c.obj)
 .text.SMC_HAL_GetStopSubMode
                0x0000000000000000       0x10 ../../../../lib/ksdk_platform_lib/armgcc/KL03Z4/release/libksdk_platform.a(fsl_smc_hal.c.obj)
 .text.SMC_HAL_GetPorMode
                0x0000000000000000        0xe ../../../../lib/ksdk_platform_lib/armgcc/KL03Z4/release/libksdk_platform.a(fsl_smc_hal.c.obj)
 .text.SMC_HAL_GetPstopMode
                0x0000000000000000       0x10 ../../../../lib/ksdk_platform_lib/armgcc/KL03Z4/release/libksdk_platform.a(fsl_smc_hal.c.obj)
 .text.SMC_HAL_GetLpoMode
                0x0000000000000000        0xe ../../../../lib/ksdk_platform_lib/armgcc/KL03Z4/release/libksdk_platform.a(fsl_smc_hal.c.obj)
 .text          0x0000000000000000        0x0 ../../../../lib/ksdk_platform_lib/armgcc/KL03Z4/release/libksdk_platform.a(fsl_rcm_hal.c.obj)
 .data          0x0000000000000000        0x0 ../../../../lib/ksdk_platform_lib/armgcc/KL03Z4/release/libksdk_platform.a(fsl_rcm_hal.c.obj)
 .bss           0x0000000000000000        0x0 ../../../../lib/ksdk_platform_lib/armgcc/KL03Z4/release/libksdk_platform.a(fsl_rcm_hal.c.obj)
 .text.RCM_HAL_GetSrcStatusCmd
                0x0000000000000000       0x54 ../../../../lib/ksdk_platform_lib/armgcc/KL03Z4/release/libksdk_platform.a(fsl_rcm_hal.c.obj)
 .text.RCM_HAL_GetStickySrcStatusCmd
                0x0000000000000000       0x5a ../../../../lib/ksdk_platform_lib/armgcc/KL03Z4/release/libksdk_platform.a(fsl_rcm_hal.c.obj)
 .text.RCM_HAL_ClearStickySrcStatus
                0x0000000000000000        0xe ../../../../lib/ksdk_platform_lib/armgcc/KL03Z4/release/libksdk_platform.a(fsl_rcm_hal.c.obj)
 .comment       0x0000000000000000       0x5a ../../../../lib/ksdk_platform_lib/armgcc/KL03Z4/release/libksdk_platform.a(fsl_rcm_hal.c.obj)
 .ARM.attributes
                0x0000000000000000       0x2c ../../../../lib/ksdk_platform_lib/armgcc/KL03Z4/release/libksdk_platform.a(fsl_rcm_hal.c.obj)
 .text          0x0000000000000000        0x0 ../../../../lib/ksdk_platform_lib/armgcc/KL03Z4/release/libksdk_platform.a(fsl_clock_manager_common.c.obj)
 .data          0x0000000000000000        0x0 ../../../../lib/ksdk_platform_lib/armgcc/KL03Z4/release/libksdk_platform.a(fsl_clock_manager_common.c.obj)
 .bss           0x0000000000000000        0x0 ../../../../lib/ksdk_platform_lib/armgcc/KL03Z4/release/libksdk_platform.a(fsl_clock_manager_common.c.obj)
 .rodata.g_mcgBaseAddr
                0x0000000000000000        0x4 ../../../../lib/ksdk_platform_lib/armgcc/KL03Z4/release/libksdk_platform.a(fsl_clock_manager_common.c.obj)
 .rodata.g_simBaseAddr
                0x0000000000000000        0x4 ../../../../lib/ksdk_platform_lib/armgcc/KL03Z4/release/libksdk_platform.a(fsl_clock_manager_common.c.obj)
 .text          0x0000000000000000        0x0 ../../../../lib/ksdk_platform_lib/armgcc/KL03Z4/release/libksdk_platform.a(fsl_gpio_hal.c.obj)
 .data          0x0000000000000000        0x0 ../../../../lib/ksdk_platform_lib/armgcc/KL03Z4/release/libksdk_platform.a(fsl_gpio_hal.c.obj)
 .bss           0x0000000000000000        0x0 ../../../../lib/ksdk_platform_lib/armgcc/KL03Z4/release/libksdk_platform.a(fsl_gpio_hal.c.obj)
 .text          0x0000000000000000        0x0 ../../../../lib/ksdk_platform_lib/armgcc/KL03Z4/release/libksdk_platform.a(fsl_gpio_common.c.obj)
 .data          0x0000000000000000        0x0 ../../../../lib/ksdk_platform_lib/armgcc/KL03Z4/release/libksdk_platform.a(fsl_gpio_common.c.obj)
 .bss           0x0000000000000000        0x0 ../../../../lib/ksdk_platform_lib/armgcc/KL03Z4/release/libksdk_platform.a(fsl_gpio_common.c.obj)
 .text          0x0000000000000000        0x0 ../../../../lib/ksdk_platform_lib/armgcc/KL03Z4/release/libksdk_platform.a(fsl_i2c_hal.c.obj)
 .data          0x0000000000000000        0x0 ../../../../lib/ksdk_platform_lib/armgcc/KL03Z4/release/libksdk_platform.a(fsl_i2c_hal.c.obj)
 .bss           0x0000000000000000        0x0 ../../../../lib/ksdk_platform_lib/armgcc/KL03Z4/release/libksdk_platform.a(fsl_i2c_hal.c.obj)
 .text.I2C_HAL_SetAddress7bit
                0x0000000000000000       0x14 ../../../../lib/ksdk_platform_lib/armgcc/KL03Z4/release/libksdk_platform.a(fsl_i2c_hal.c.obj)
 .text.I2C_HAL_SetAddress10bit
                0x0000000000000000       0x24 ../../../../lib/ksdk_platform_lib/armgcc/KL03Z4/release/libksdk_platform.a(fsl_i2c_hal.c.obj)
 .text.I2C_HAL_ReadByteBlocking
                0x0000000000000000       0x1a ../../../../lib/ksdk_platform_lib/armgcc/KL03Z4/release/libksdk_platform.a(fsl_i2c_hal.c.obj)
 .text.I2C_HAL_WriteByteBlocking
                0x0000000000000000       0x34 ../../../../lib/ksdk_platform_lib/armgcc/KL03Z4/release/libksdk_platform.a(fsl_i2c_hal.c.obj)
 .text.I2C_HAL_MasterReceiveDataPolling
                0x0000000000000000       0xda ../../../../lib/ksdk_platform_lib/armgcc/KL03Z4/release/libksdk_platform.a(fsl_i2c_hal.c.obj)
 .text.I2C_HAL_MasterSendDataPolling
                0x0000000000000000       0x92 ../../../../lib/ksdk_platform_lib/armgcc/KL03Z4/release/libksdk_platform.a(fsl_i2c_hal.c.obj)
 .text.I2C_HAL_SlaveSendDataPolling
                0x0000000000000000       0x98 ../../../../lib/ksdk_platform_lib/armgcc/KL03Z4/release/libksdk_platform.a(fsl_i2c_hal.c.obj)
 .text.I2C_HAL_SlaveReceiveDataPolling
                0x0000000000000000       0x68 ../../../../lib/ksdk_platform_lib/armgcc/KL03Z4/release/libksdk_platform.a(fsl_i2c_hal.c.obj)
 .text          0x0000000000000000        0x0 ../../../../lib/ksdk_platform_lib/armgcc/KL03Z4/release/libksdk_platform.a(fsl_lpuart_hal.c.obj)
 .data          0x0000000000000000        0x0 ../../../../lib/ksdk_platform_lib/armgcc/KL03Z4/release/libksdk_platform.a(fsl_lpuart_hal.c.obj)
 .bss           0x0000000000000000        0x0 ../../../../lib/ksdk_platform_lib/armgcc/KL03Z4/release/libksdk_platform.a(fsl_lpuart_hal.c.obj)
 .text.LPUART_HAL_Init
                0x0000000000000000       0x18 ../../../../lib/ksdk_platform_lib/armgcc/KL03Z4/release/libksdk_platform.a(fsl_lpuart_hal.c.obj)
 .text.LPUART_HAL_SetBaudRate
                0x0000000000000000       0xb4 ../../../../lib/ksdk_platform_lib/armgcc/KL03Z4/release/libksdk_platform.a(fsl_lpuart_hal.c.obj)
 .text.LPUART_HAL_SetBitCountPerChar
                0x0000000000000000       0x22 ../../../../lib/ksdk_platform_lib/armgcc/KL03Z4/release/libksdk_platform.a(fsl_lpuart_hal.c.obj)
 .text.LPUART_HAL_SetParityMode
                0x0000000000000000       0x1c ../../../../lib/ksdk_platform_lib/armgcc/KL03Z4/release/libksdk_platform.a(fsl_lpuart_hal.c.obj)
 .text.LPUART_HAL_Putchar9
                0x0000000000000000       0x18 ../../../../lib/ksdk_platform_lib/armgcc/KL03Z4/release/libksdk_platform.a(fsl_lpuart_hal.c.obj)
 .text.LPUART_HAL_Putchar10
                0x0000000000000000       0x2c ../../../../lib/ksdk_platform_lib/armgcc/KL03Z4/release/libksdk_platform.a(fsl_lpuart_hal.c.obj)
 .text.LPUART_HAL_Getchar9
                0x0000000000000000       0x18 ../../../../lib/ksdk_platform_lib/armgcc/KL03Z4/release/libksdk_platform.a(fsl_lpuart_hal.c.obj)
 .text.LPUART_HAL_Getchar10
                0x0000000000000000       0x24 ../../../../lib/ksdk_platform_lib/armgcc/KL03Z4/release/libksdk_platform.a(fsl_lpuart_hal.c.obj)
 .text.LPUART_HAL_SendDataPolling
                0x0000000000000000       0x20 ../../../../lib/ksdk_platform_lib/armgcc/KL03Z4/release/libksdk_platform.a(fsl_lpuart_hal.c.obj)
 .text.LPUART_HAL_ReceiveDataPolling
                0x0000000000000000       0x38 ../../../../lib/ksdk_platform_lib/armgcc/KL03Z4/release/libksdk_platform.a(fsl_lpuart_hal.c.obj)
 .text.LPUART_HAL_SetLoopbackCmd
                0x0000000000000000       0x18 ../../../../lib/ksdk_platform_lib/armgcc/KL03Z4/release/libksdk_platform.a(fsl_lpuart_hal.c.obj)
 .text.LPUART_HAL_SetSingleWireCmd
                0x0000000000000000       0x18 ../../../../lib/ksdk_platform_lib/armgcc/KL03Z4/release/libksdk_platform.a(fsl_lpuart_hal.c.obj)
 .text.LPUART_HAL_SetReceiverInStandbyMode
                0x0000000000000000       0x38 ../../../../lib/ksdk_platform_lib/armgcc/KL03Z4/release/libksdk_platform.a(fsl_lpuart_hal.c.obj)
 .text.LPUART_HAL_SetIdleLineDetect
                0x0000000000000000       0x28 ../../../../lib/ksdk_platform_lib/armgcc/KL03Z4/release/libksdk_platform.a(fsl_lpuart_hal.c.obj)
 .text.LPUART_HAL_SetMatchAddressReg1
                0x0000000000000000       0x24 ../../../../lib/ksdk_platform_lib/armgcc/KL03Z4/release/libksdk_platform.a(fsl_lpuart_hal.c.obj)
 .text.LPUART_HAL_SetMatchAddressReg2
                0x0000000000000000       0x28 ../../../../lib/ksdk_platform_lib/armgcc/KL03Z4/release/libksdk_platform.a(fsl_lpuart_hal.c.obj)
 .text          0x0000000000000000        0x0 ../../../../lib/ksdk_platform_lib/armgcc/KL03Z4/release/libksdk_platform.a(fsl_spi_hal.c.obj)
 .data          0x0000000000000000        0x0 ../../../../lib/ksdk_platform_lib/armgcc/KL03Z4/release/libksdk_platform.a(fsl_spi_hal.c.obj)
 .bss           0x0000000000000000        0x0 ../../../../lib/ksdk_platform_lib/armgcc/KL03Z4/release/libksdk_platform.a(fsl_spi_hal.c.obj)
 .text.SPI_HAL_Init
                0x0000000000000000        0xe ../../../../lib/ksdk_platform_lib/armgcc/KL03Z4/release/libksdk_platform.a(fsl_spi_hal.c.obj)
 .text.SPI_HAL_SetBaud
                0x0000000000000000       0x6e ../../../../lib/ksdk_platform_lib/armgcc/KL03Z4/release/libksdk_platform.a(fsl_spi_hal.c.obj)
 .text.SPI_HAL_SetSlaveSelectOutputMode
                0x0000000000000000       0x24 ../../../../lib/ksdk_platform_lib/armgcc/KL03Z4/release/libksdk_platform.a(fsl_spi_hal.c.obj)
 .text.SPI_HAL_SetDataFormat
                0x0000000000000000       0x26 ../../../../lib/ksdk_platform_lib/armgcc/KL03Z4/release/libksdk_platform.a(fsl_spi_hal.c.obj)
 .text.SPI_HAL_SetPinMode
                0x0000000000000000       0x1e ../../../../lib/ksdk_platform_lib/armgcc/KL03Z4/release/libksdk_platform.a(fsl_spi_hal.c.obj)
 .text.SPI_HAL_ClearModeFaultFlag
                0x0000000000000000       0x14 ../../../../lib/ksdk_platform_lib/armgcc/KL03Z4/release/libksdk_platform.a(fsl_spi_hal.c.obj)
 .text.SPI_HAL_ClearMatchFlag
                0x0000000000000000       0x12 ../../../../lib/ksdk_platform_lib/armgcc/KL03Z4/release/libksdk_platform.a(fsl_spi_hal.c.obj)
 .text.SPI_HAL_WriteDataBlocking
                0x0000000000000000       0x16 ../../../../lib/ksdk_platform_lib/armgcc/KL03Z4/release/libksdk_platform.a(fsl_spi_hal.c.obj)
 .comment       0x0000000000000000       0x5a ../../../../lib/ksdk_platform_lib/armgcc/KL03Z4/release/libksdk_platform.a(fsl_spi_hal.c.obj)
 .ARM.attributes
                0x0000000000000000       0x2c ../../../../lib/ksdk_platform_lib/armgcc/KL03Z4/release/libksdk_platform.a(fsl_spi_hal.c.obj)
 .data          0x0000000000000000        0x0 /usr/lib/gcc/arm-none-eabi/9.2.1/../../../arm-none-eabi/lib/thumb/v6-m/nofp/libm.a(lib_a-s_round.o)
 .bss           0x0000000000000000        0x0 /usr/lib/gcc/arm-none-eabi/9.2.1/../../../arm-none-eabi/lib/thumb/v6-m/nofp/libm.a(lib_a-s_round.o)
 .data          0x0000000000000000        0x0 /usr/lib/gcc/arm-none-eabi/9.2.1/../../../arm-none-eabi/lib/thumb/v6-m/nofp/libm.a(lib_a-w_sqrt.o)
 .bss           0x0000000000000000        0x0 /usr/lib/gcc/arm-none-eabi/9.2.1/../../../arm-none-eabi/lib/thumb/v6-m/nofp/libm.a(lib_a-w_sqrt.o)
 .data          0x0000000000000000        0x0 /usr/lib/gcc/arm-none-eabi/9.2.1/../../../arm-none-eabi/lib/thumb/v6-m/nofp/libm.a(lib_a-e_sqrt.o)
 .bss           0x0000000000000000        0x0 /usr/lib/gcc/arm-none-eabi/9.2.1/../../../arm-none-eabi/lib/thumb/v6-m/nofp/libm.a(lib_a-e_sqrt.o)
 .text          0x0000000000000000        0x0 /usr/lib/gcc/arm-none-eabi/9.2.1/../../../arm-none-eabi/lib/thumb/v6-m/nofp/libm.a(lib_a-s_lib_ver.o)
 .bss           0x0000000000000000        0x0 /usr/lib/gcc/arm-none-eabi/9.2.1/../../../arm-none-eabi/lib/thumb/v6-m/nofp/libm.a(lib_a-s_lib_ver.o)
 .data          0x0000000000000000        0x0 /usr/lib/gcc/arm-none-eabi/9.2.1/../../../arm-none-eabi/lib/thumb/v6-m/nofp/libc_nano.a(lib_a-abs.o)
 .bss           0x0000000000000000        0x0 /usr/lib/gcc/arm-none-eabi/9.2.1/../../../arm-none-eabi/lib/thumb/v6-m/nofp/libc_nano.a(lib_a-abs.o)
 .data          0x0000000000000000        0x0 /usr/lib/gcc/arm-none-eabi/9.2.1/../../../arm-none-eabi/lib/thumb/v6-m/nofp/libc_nano.a(lib_a-atexit.o)
 .bss           0x0000000000000000        0x0 /usr/lib/gcc/arm-none-eabi/9.2.1/../../../arm-none-eabi/lib/thumb/v6-m/nofp/libc_nano.a(lib_a-atexit.o)
 .data          0x0000000000000000        0x0 /usr/lib/gcc/arm-none-eabi/9.2.1/../../../arm-none-eabi/lib/thumb/v6-m/nofp/libc_nano.a(lib_a-bzero.o)
 .bss           0x0000000000000000        0x0 /usr/lib/gcc/arm-none-eabi/9.2.1/../../../arm-none-eabi/lib/thumb/v6-m/nofp/libc_nano.a(lib_a-bzero.o)
 .text          0x0000000000000000       0x18 /usr/lib/gcc/arm-none-eabi/9.2.1/../../../arm-none-eabi/lib/thumb/v6-m/nofp/libc_nano.a(lib_a-calloc.o)
 .data          0x0000000000000000        0x0 /usr/lib/gcc/arm-none-eabi/9.2.1/../../../arm-none-eabi/lib/thumb/v6-m/nofp/libc_nano.a(lib_a-calloc.o)
 .bss           0x0000000000000000        0x0 /usr/lib/gcc/arm-none-eabi/9.2.1/../../../arm-none-eabi/lib/thumb/v6-m/nofp/libc_nano.a(lib_a-calloc.o)
 .debug_info    0x0000000000000000      0x988 /usr/lib/gcc/arm-none-eabi/9.2.1/../../../arm-none-eabi/lib/thumb/v6-m/nofp/libc_nano.a(lib_a-calloc.o)
 .debug_abbrev  0x0000000000000000      0x1e7 /usr/lib/gcc/arm-none-eabi/9.2.1/../../../arm-none-eabi/lib/thumb/v6-m/nofp/libc_nano.a(lib_a-calloc.o)
 .debug_loc     0x0000000000000000       0x64 /usr/lib/gcc/arm-none-eabi/9.2.1/../../../arm-none-eabi/lib/thumb/v6-m/nofp/libc_nano.a(lib_a-calloc.o)
 .debug_aranges
                0x0000000000000000       0x20 /usr/lib/gcc/arm-none-eabi/9.2.1/../../../arm-none-eabi/lib/thumb/v6-m/nofp/libc_nano.a(lib_a-calloc.o)
 .debug_line    0x0000000000000000      0x14c /usr/lib/gcc/arm-none-eabi/9.2.1/../../../arm-none-eabi/lib/thumb/v6-m/nofp/libc_nano.a(lib_a-calloc.o)
 .debug_str     0x0000000000000000      0x5f8 /usr/lib/gcc/arm-none-eabi/9.2.1/../../../arm-none-eabi/lib/thumb/v6-m/nofp/libc_nano.a(lib_a-calloc.o)
 .comment       0x0000000000000000       0x4f /usr/lib/gcc/arm-none-eabi/9.2.1/../../../arm-none-eabi/lib/thumb/v6-m/nofp/libc_nano.a(lib_a-calloc.o)
 .debug_frame   0x0000000000000000       0x28 /usr/lib/gcc/arm-none-eabi/9.2.1/../../../arm-none-eabi/lib/thumb/v6-m/nofp/libc_nano.a(lib_a-calloc.o)
 .ARM.attributes
                0x0000000000000000       0x2c /usr/lib/gcc/arm-none-eabi/9.2.1/../../../arm-none-eabi/lib/thumb/v6-m/nofp/libc_nano.a(lib_a-calloc.o)
 .data          0x0000000000000000        0x0 /usr/lib/gcc/arm-none-eabi/9.2.1/../../../arm-none-eabi/lib/thumb/v6-m/nofp/libc_nano.a(lib_a-errno.o)
 .bss           0x0000000000000000        0x0 /usr/lib/gcc/arm-none-eabi/9.2.1/../../../arm-none-eabi/lib/thumb/v6-m/nofp/libc_nano.a(lib_a-errno.o)
 .data          0x0000000000000000        0x0 /usr/lib/gcc/arm-none-eabi/9.2.1/../../../arm-none-eabi/lib/thumb/v6-m/nofp/libc_nano.a(lib_a-exit.o)
 .bss           0x0000000000000000        0x0 /usr/lib/gcc/arm-none-eabi/9.2.1/../../../arm-none-eabi/lib/thumb/v6-m/nofp/libc_nano.a(lib_a-exit.o)
 .data          0x0000000000000000        0x0 /usr/lib/gcc/arm-none-eabi/9.2.1/../../../arm-none-eabi/lib/thumb/v6-m/nofp/libc_nano.a(lib_a-fini.o)
 .bss           0x0000000000000000        0x0 /usr/lib/gcc/arm-none-eabi/9.2.1/../../../arm-none-eabi/lib/thumb/v6-m/nofp/libc_nano.a(lib_a-fini.o)
 .text          0x0000000000000000        0x0 /usr/lib/gcc/arm-none-eabi/9.2.1/../../../arm-none-eabi/lib/thumb/v6-m/nofp/libc_nano.a(lib_a-impure.o)
 .bss           0x0000000000000000        0x0 /usr/lib/gcc/arm-none-eabi/9.2.1/../../../arm-none-eabi/lib/thumb/v6-m/nofp/libc_nano.a(lib_a-impure.o)
 .data          0x0000000000000000        0x0 /usr/lib/gcc/arm-none-eabi/9.2.1/../../../arm-none-eabi/lib/thumb/v6-m/nofp/libc_nano.a(lib_a-init.o)
 .bss           0x0000000000000000        0x0 /usr/lib/gcc/arm-none-eabi/9.2.1/../../../arm-none-eabi/lib/thumb/v6-m/nofp/libc_nano.a(lib_a-init.o)
 .data          0x0000000000000000        0x0 /usr/lib/gcc/arm-none-eabi/9.2.1/../../../arm-none-eabi/lib/thumb/v6-m/nofp/libc_nano.a(lib_a-malloc.o)
 .bss           0x0000000000000000        0x0 /usr/lib/gcc/arm-none-eabi/9.2.1/../../../arm-none-eabi/lib/thumb/v6-m/nofp/libc_nano.a(lib_a-malloc.o)
 .data          0x0000000000000000        0x0 /usr/lib/gcc/arm-none-eabi/9.2.1/../../../arm-none-eabi/lib/thumb/v6-m/nofp/libc_nano.a(lib_a-memcpy-stub.o)
 .bss           0x0000000000000000        0x0 /usr/lib/gcc/arm-none-eabi/9.2.1/../../../arm-none-eabi/lib/thumb/v6-m/nofp/libc_nano.a(lib_a-memcpy-stub.o)
 .data          0x0000000000000000        0x0 /usr/lib/gcc/arm-none-eabi/9.2.1/../../../arm-none-eabi/lib/thumb/v6-m/nofp/libc_nano.a(lib_a-memset.o)
 .bss           0x0000000000000000        0x0 /usr/lib/gcc/arm-none-eabi/9.2.1/../../../arm-none-eabi/lib/thumb/v6-m/nofp/libc_nano.a(lib_a-memset.o)
 .text          0x0000000000000000       0x1c /usr/lib/gcc/arm-none-eabi/9.2.1/../../../arm-none-eabi/lib/thumb/v6-m/nofp/libc_nano.a(lib_a-nano-callocr.o)
 .data          0x0000000000000000        0x0 /usr/lib/gcc/arm-none-eabi/9.2.1/../../../arm-none-eabi/lib/thumb/v6-m/nofp/libc_nano.a(lib_a-nano-callocr.o)
 .bss           0x0000000000000000        0x0 /usr/lib/gcc/arm-none-eabi/9.2.1/../../../arm-none-eabi/lib/thumb/v6-m/nofp/libc_nano.a(lib_a-nano-callocr.o)
 .debug_info    0x0000000000000000      0xafe /usr/lib/gcc/arm-none-eabi/9.2.1/../../../arm-none-eabi/lib/thumb/v6-m/nofp/libc_nano.a(lib_a-nano-callocr.o)
 .debug_abbrev  0x0000000000000000      0x20d /usr/lib/gcc/arm-none-eabi/9.2.1/../../../arm-none-eabi/lib/thumb/v6-m/nofp/libc_nano.a(lib_a-nano-callocr.o)
 .debug_loc     0x0000000000000000       0x9e /usr/lib/gcc/arm-none-eabi/9.2.1/../../../arm-none-eabi/lib/thumb/v6-m/nofp/libc_nano.a(lib_a-nano-callocr.o)
 .debug_aranges
                0x0000000000000000       0x20 /usr/lib/gcc/arm-none-eabi/9.2.1/../../../arm-none-eabi/lib/thumb/v6-m/nofp/libc_nano.a(lib_a-nano-callocr.o)
 .debug_line    0x0000000000000000      0x180 /usr/lib/gcc/arm-none-eabi/9.2.1/../../../arm-none-eabi/lib/thumb/v6-m/nofp/libc_nano.a(lib_a-nano-callocr.o)
 .debug_str     0x0000000000000000      0x6e1 /usr/lib/gcc/arm-none-eabi/9.2.1/../../../arm-none-eabi/lib/thumb/v6-m/nofp/libc_nano.a(lib_a-nano-callocr.o)
 .comment       0x0000000000000000       0x4f /usr/lib/gcc/arm-none-eabi/9.2.1/../../../arm-none-eabi/lib/thumb/v6-m/nofp/libc_nano.a(lib_a-nano-callocr.o)
 .debug_frame   0x0000000000000000       0x2c /usr/lib/gcc/arm-none-eabi/9.2.1/../../../arm-none-eabi/lib/thumb/v6-m/nofp/libc_nano.a(lib_a-nano-callocr.o)
 .ARM.attributes
                0x0000000000000000       0x2c /usr/lib/gcc/arm-none-eabi/9.2.1/../../../arm-none-eabi/lib/thumb/v6-m/nofp/libc_nano.a(lib_a-nano-callocr.o)
 .data          0x0000000000000000        0x0 /usr/lib/gcc/arm-none-eabi/9.2.1/../../../arm-none-eabi/lib/thumb/v6-m/nofp/libc_nano.a(lib_a-nano-freer.o)
 .bss           0x0000000000000000        0x0 /usr/lib/gcc/arm-none-eabi/9.2.1/../../../arm-none-eabi/lib/thumb/v6-m/nofp/libc_nano.a(lib_a-nano-freer.o)
 .data          0x0000000000000000        0x0 /usr/lib/gcc/arm-none-eabi/9.2.1/../../../arm-none-eabi/lib/thumb/v6-m/nofp/libc_nano.a(lib_a-nano-mallocr.o)
 .data          0x0000000000000000        0x0 /usr/lib/gcc/arm-none-eabi/9.2.1/../../../arm-none-eabi/lib/thumb/v6-m/nofp/libc_nano.a(lib_a-sbrkr.o)
 .bss           0x0000000000000000        0x0 /usr/lib/gcc/arm-none-eabi/9.2.1/../../../arm-none-eabi/lib/thumb/v6-m/nofp/libc_nano.a(lib_a-sbrkr.o)
 .data          0x0000000000000000        0x0 /usr/lib/gcc/arm-none-eabi/9.2.1/../../../arm-none-eabi/lib/thumb/v6-m/nofp/libc_nano.a(lib_a-strcpy.o)
 .bss           0x0000000000000000        0x0 /usr/lib/gcc/arm-none-eabi/9.2.1/../../../arm-none-eabi/lib/thumb/v6-m/nofp/libc_nano.a(lib_a-strcpy.o)
 .data          0x0000000000000000        0x0 /usr/lib/gcc/arm-none-eabi/9.2.1/../../../arm-none-eabi/lib/thumb/v6-m/nofp/libc_nano.a(lib_a-strlen-stub.o)
 .bss           0x0000000000000000        0x0 /usr/lib/gcc/arm-none-eabi/9.2.1/../../../arm-none-eabi/lib/thumb/v6-m/nofp/libc_nano.a(lib_a-strlen-stub.o)
 .data          0x0000000000000000        0x4 /usr/lib/gcc/arm-none-eabi/9.2.1/../../../arm-none-eabi/lib/thumb/v6-m/nofp/libc_nano.a(lib_a-__atexit.o)
 .data          0x0000000000000000        0x0 /usr/lib/gcc/arm-none-eabi/9.2.1/../../../arm-none-eabi/lib/thumb/v6-m/nofp/libc_nano.a(lib_a-__call_atexit.o)
 .data          0x0000000000000000        0x0 /usr/lib/gcc/arm-none-eabi/9.2.1/../../../arm-none-eabi/lib/thumb/v6-m/nofp/libc_nano.a(lib_a-mlock.o)
 .bss           0x0000000000000000        0x0 /usr/lib/gcc/arm-none-eabi/9.2.1/../../../arm-none-eabi/lib/thumb/v6-m/nofp/libc_nano.a(lib_a-mlock.o)
 .text          0x0000000000000000       0xf8 /usr/lib/gcc/arm-none-eabi/9.2.1/../../../arm-none-eabi/lib/thumb/v6-m/nofp/libc_nano.a(lib_a-reent.o)
 .data          0x0000000000000000        0x0 /usr/lib/gcc/arm-none-eabi/9.2.1/../../../arm-none-eabi/lib/thumb/v6-m/nofp/libc_nano.a(lib_a-reent.o)
 .bss           0x0000000000000000        0x0 /usr/lib/gcc/arm-none-eabi/9.2.1/../../../arm-none-eabi/lib/thumb/v6-m/nofp/libc_nano.a(lib_a-reent.o)
 .text          0x0000000000000000       0x14 /usr/lib/gcc/arm-none-eabi/9.2.1/thumb/v6-m/nofp/libgcc.a(_thumb1_case_sqi.o)
 .data          0x0000000000000000        0x0 /usr/lib/gcc/arm-none-eabi/9.2.1/thumb/v6-m/nofp/libgcc.a(_thumb1_case_sqi.o)
 .bss           0x0000000000000000        0x0 /usr/lib/gcc/arm-none-eabi/9.2.1/thumb/v6-m/nofp/libgcc.a(_thumb1_case_sqi.o)
 .debug_line    0x0000000000000000       0x68 /usr/lib/gcc/arm-none-eabi/9.2.1/thumb/v6-m/nofp/libgcc.a(_thumb1_case_sqi.o)
 .debug_info    0x0000000000000000       0x26 /usr/lib/gcc/arm-none-eabi/9.2.1/thumb/v6-m/nofp/libgcc.a(_thumb1_case_sqi.o)
 .debug_abbrev  0x0000000000000000       0x14 /usr/lib/gcc/arm-none-eabi/9.2.1/thumb/v6-m/nofp/libgcc.a(_thumb1_case_sqi.o)
 .debug_aranges
                0x0000000000000000       0x20 /usr/lib/gcc/arm-none-eabi/9.2.1/thumb/v6-m/nofp/libgcc.a(_thumb1_case_sqi.o)
 .debug_str     0x0000000000000000       0xa3 /usr/lib/gcc/arm-none-eabi/9.2.1/thumb/v6-m/nofp/libgcc.a(_thumb1_case_sqi.o)
 .ARM.attributes
                0x0000000000000000       0x1e /usr/lib/gcc/arm-none-eabi/9.2.1/thumb/v6-m/nofp/libgcc.a(_thumb1_case_sqi.o)
 .data          0x0000000000000000        0x0 /usr/lib/gcc/arm-none-eabi/9.2.1/thumb/v6-m/nofp/libgcc.a(_thumb1_case_uqi.o)
 .bss           0x0000000000000000        0x0 /usr/lib/gcc/arm-none-eabi/9.2.1/thumb/v6-m/nofp/libgcc.a(_thumb1_case_uqi.o)
 .data          0x0000000000000000        0x0 /usr/lib/gcc/arm-none-eabi/9.2.1/thumb/v6-m/nofp/libgcc.a(_thumb1_case_shi.o)
 .bss           0x0000000000000000        0x0 /usr/lib/gcc/arm-none-eabi/9.2.1/thumb/v6-m/nofp/libgcc.a(_thumb1_case_shi.o)
 .data          0x0000000000000000        0x0 /usr/lib/gcc/arm-none-eabi/9.2.1/thumb/v6-m/nofp/libgcc.a(_udivsi3.o)
 .bss           0x0000000000000000        0x0 /usr/lib/gcc/arm-none-eabi/9.2.1/thumb/v6-m/nofp/libgcc.a(_udivsi3.o)
 .data          0x0000000000000000        0x0 /usr/lib/gcc/arm-none-eabi/9.2.1/thumb/v6-m/nofp/libgcc.a(_divsi3.o)
 .bss           0x0000000000000000        0x0 /usr/lib/gcc/arm-none-eabi/9.2.1/thumb/v6-m/nofp/libgcc.a(_divsi3.o)
 .data          0x0000000000000000        0x0 /usr/lib/gcc/arm-none-eabi/9.2.1/thumb/v6-m/nofp/libgcc.a(_dvmd_tls.o)
 .bss           0x0000000000000000        0x0 /usr/lib/gcc/arm-none-eabi/9.2.1/thumb/v6-m/nofp/libgcc.a(_dvmd_tls.o)
 .data          0x0000000000000000        0x0 /usr/lib/gcc/arm-none-eabi/9.2.1/thumb/v6-m/nofp/libgcc.a(_arm_cmpdf2.o)
 .bss           0x0000000000000000        0x0 /usr/lib/gcc/arm-none-eabi/9.2.1/thumb/v6-m/nofp/libgcc.a(_arm_cmpdf2.o)
 .data          0x0000000000000000        0x0 /usr/lib/gcc/arm-none-eabi/9.2.1/thumb/v6-m/nofp/libgcc.a(_fixunsdfsi.o)
 .bss           0x0000000000000000        0x0 /usr/lib/gcc/arm-none-eabi/9.2.1/thumb/v6-m/nofp/libgcc.a(_fixunsdfsi.o)
 .data          0x0000000000000000        0x0 /usr/lib/gcc/arm-none-eabi/9.2.1/thumb/v6-m/nofp/libgcc.a(adddf3.o)
 .bss           0x0000000000000000        0x0 /usr/lib/gcc/arm-none-eabi/9.2.1/thumb/v6-m/nofp/libgcc.a(adddf3.o)
 .data          0x0000000000000000        0x0 /usr/lib/gcc/arm-none-eabi/9.2.1/thumb/v6-m/nofp/libgcc.a(divdf3.o)
 .bss           0x0000000000000000        0x0 /usr/lib/gcc/arm-none-eabi/9.2.1/thumb/v6-m/nofp/libgcc.a(divdf3.o)
 .data          0x0000000000000000        0x0 /usr/lib/gcc/arm-none-eabi/9.2.1/thumb/v6-m/nofp/libgcc.a(eqdf2.o)
 .bss           0x0000000000000000        0x0 /usr/lib/gcc/arm-none-eabi/9.2.1/thumb/v6-m/nofp/libgcc.a(eqdf2.o)
 .data          0x0000000000000000        0x0 /usr/lib/gcc/arm-none-eabi/9.2.1/thumb/v6-m/nofp/libgcc.a(gedf2.o)
 .bss           0x0000000000000000        0x0 /usr/lib/gcc/arm-none-eabi/9.2.1/thumb/v6-m/nofp/libgcc.a(gedf2.o)
 .data          0x0000000000000000        0x0 /usr/lib/gcc/arm-none-eabi/9.2.1/thumb/v6-m/nofp/libgcc.a(ledf2.o)
 .bss           0x0000000000000000        0x0 /usr/lib/gcc/arm-none-eabi/9.2.1/thumb/v6-m/nofp/libgcc.a(ledf2.o)
 .data          0x0000000000000000        0x0 /usr/lib/gcc/arm-none-eabi/9.2.1/thumb/v6-m/nofp/libgcc.a(muldf3.o)
 .bss           0x0000000000000000        0x0 /usr/lib/gcc/arm-none-eabi/9.2.1/thumb/v6-m/nofp/libgcc.a(muldf3.o)
 .data          0x0000000000000000        0x0 /usr/lib/gcc/arm-none-eabi/9.2.1/thumb/v6-m/nofp/libgcc.a(subdf3.o)
 .bss           0x0000000000000000        0x0 /usr/lib/gcc/arm-none-eabi/9.2.1/thumb/v6-m/nofp/libgcc.a(subdf3.o)
 .data          0x0000000000000000        0x0 /usr/lib/gcc/arm-none-eabi/9.2.1/thumb/v6-m/nofp/libgcc.a(unorddf2.o)
 .bss           0x0000000000000000        0x0 /usr/lib/gcc/arm-none-eabi/9.2.1/thumb/v6-m/nofp/libgcc.a(unorddf2.o)
 .data          0x0000000000000000        0x0 /usr/lib/gcc/arm-none-eabi/9.2.1/thumb/v6-m/nofp/libgcc.a(fixdfsi.o)
 .bss           0x0000000000000000        0x0 /usr/lib/gcc/arm-none-eabi/9.2.1/thumb/v6-m/nofp/libgcc.a(fixdfsi.o)
 .data          0x0000000000000000        0x0 /usr/lib/gcc/arm-none-eabi/9.2.1/thumb/v6-m/nofp/libgcc.a(floatsidf.o)
 .bss           0x0000000000000000        0x0 /usr/lib/gcc/arm-none-eabi/9.2.1/thumb/v6-m/nofp/libgcc.a(floatsidf.o)
 .data          0x0000000000000000        0x0 /usr/lib/gcc/arm-none-eabi/9.2.1/thumb/v6-m/nofp/libgcc.a(_clzsi2.o)
 .bss           0x0000000000000000        0x0 /usr/lib/gcc/arm-none-eabi/9.2.1/thumb/v6-m/nofp/libgcc.a(_clzsi2.o)
 .data          0x0000000000000000        0x0 /usr/lib/gcc/arm-none-eabi/9.2.1/../../../arm-none-eabi/lib/thumb/v6-m/nofp/libnosys.a(_exit.o)
 .bss           0x0000000000000000        0x0 /usr/lib/gcc/arm-none-eabi/9.2.1/../../../arm-none-eabi/lib/thumb/v6-m/nofp/libnosys.a(_exit.o)
 .text          0x0000000000000000        0x0 /usr/lib/gcc/arm-none-eabi/9.2.1/thumb/v6-m/nofp/crtend.o
 .data          0x0000000000000000        0x0 /usr/lib/gcc/arm-none-eabi/9.2.1/thumb/v6-m/nofp/crtend.o
 .bss           0x0000000000000000        0x0 /usr/lib/gcc/arm-none-eabi/9.2.1/thumb/v6-m/nofp/crtend.o
 .eh_frame      0x0000000000000000        0x4 /usr/lib/gcc/arm-none-eabi/9.2.1/thumb/v6-m/nofp/crtend.o
 .text          0x0000000000000000        0x0 /usr/lib/gcc/arm-none-eabi/9.2.1/thumb/v6-m/nofp/crtn.o
 .data          0x0000000000000000        0x0 /usr/lib/gcc/arm-none-eabi/9.2.1/thumb/v6-m/nofp/crtn.o
 .bss           0x0000000000000000        0x0 /usr/lib/gcc/arm-none-eabi/9.2.1/thumb/v6-m/nofp/crtn.o

Memory Configuration

Name             Origin             Length             Attributes
m_interrupts     0x0000000000000000 0x0000000000000100 xr
m_flash_config   0x0000000000000400 0x0000000000000010 xr
m_text           0x0000000000000410 0x0000000000007bf0 xr
m_data           0x000000001ffffe00 0x0000000000000800 rw
*default*        0x0000000000000000 0xffffffffffffffff

Linker script and memory map

LOAD /usr/lib/gcc/arm-none-eabi/9.2.1/thumb/v6-m/nofp/crti.o
LOAD /usr/lib/gcc/arm-none-eabi/9.2.1/thumb/v6-m/nofp/crtbegin.o
LOAD /usr/lib/gcc/arm-none-eabi/9.2.1/../../../arm-none-eabi/lib/thumb/v6-m/nofp/crt0.o
LOAD /usr/lib/gcc/arm-none-eabi/9.2.1/../../../arm-none-eabi/lib/thumb/v6-m/nofp/libm.a
                0x0000000000000200                __stack_size__ = 0x200
                0x0000000000000000                __heap_size__ = 0x0
LOAD CMakeFiles/Warp.dir/home/students/rr632/Warp-firmware/build/ksdk1.1/work/platform/utilities/src/fsl_misc_utilities.c.obj
LOAD CMakeFiles/Warp.dir/home/students/rr632/Warp-firmware/build/ksdk1.1/work/platform/startup/MKL03Z4/gcc/startup_MKL03Z4.S.obj
LOAD CMakeFiles/Warp.dir/home/students/rr632/Warp-firmware/build/ksdk1.1/work/demos/Warp/src/script.c.obj
LOAD CMakeFiles/Warp.dir/home/students/rr632/Warp-firmware/build/ksdk1.1/work/demos/Warp/src/errstrsEN.c.obj
LOAD CMakeFiles/Warp.dir/home/students/rr632/Warp-firmware/build/ksdk1.1/work/demos/Warp/src/powermodes.c.obj
LOAD CMakeFiles/Warp.dir/home/students/rr632/Warp-firmware/build/ksdk1.1/work/demos/Warp/src/devBMX055.c.obj
LOAD CMakeFiles/Warp.dir/home/students/rr632/Warp-firmware/build/ksdk1.1/work/demos/Warp/src/devADXL362.c.obj
LOAD CMakeFiles/Warp.dir/home/students/rr632/Warp-firmware/build/ksdk1.1/work/demos/Warp/src/devIS25xP.c.obj
LOAD CMakeFiles/Warp.dir/home/students/rr632/Warp-firmware/build/ksdk1.1/work/demos/Warp/src/devISL23415.c.obj
LOAD CMakeFiles/Warp.dir/home/students/rr632/Warp-firmware/build/ksdk1.1/work/demos/Warp/src/devAT45DB.c.obj
LOAD CMakeFiles/Warp.dir/home/students/rr632/Warp-firmware/build/ksdk1.1/work/demos/Warp/src/devMMA8451Q.c.obj
LOAD CMakeFiles/Warp.dir/home/students/rr632/Warp-firmware/build/ksdk1.1/work/demos/Warp/src/devSSD1331.c.obj
LOAD CMakeFiles/Warp.dir/home/students/rr632/Warp-firmware/build/ksdk1.1/work/demos/Warp/src/devINA219.c.obj
LOAD CMakeFiles/Warp.dir/home/students/rr632/Warp-firmware/build/ksdk1.1/work/demos/Warp/src/devLPS25H.c.obj
LOAD CMakeFiles/Warp.dir/home/students/rr632/Warp-firmware/build/ksdk1.1/work/demos/Warp/src/devHDC1000.c.obj
LOAD CMakeFiles/Warp.dir/home/students/rr632/Warp-firmware/build/ksdk1.1/work/demos/Warp/src/devMAG3110.c.obj
LOAD CMakeFiles/Warp.dir/home/students/rr632/Warp-firmware/build/ksdk1.1/work/demos/Warp/src/devSI7021.c.obj
LOAD CMakeFiles/Warp.dir/home/students/rr632/Warp-firmware/build/ksdk1.1/work/demos/Warp/src/devL3GD20H.c.obj
LOAD CMakeFiles/Warp.dir/home/students/rr632/Warp-firmware/build/ksdk1.1/work/demos/Warp/src/devBME680.c.obj
LOAD CMakeFiles/Warp.dir/home/students/rr632/Warp-firmware/build/ksdk1.1/work/demos/Warp/src/devTCS34725.c.obj
LOAD CMakeFiles/Warp.dir/home/students/rr632/Warp-firmware/build/ksdk1.1/work/demos/Warp/src/devSI4705.c.obj
LOAD CMakeFiles/Warp.dir/home/students/rr632/Warp-firmware/build/ksdk1.1/work/demos/Warp/src/devCCS811.c.obj
LOAD CMakeFiles/Warp.dir/home/students/rr632/Warp-firmware/build/ksdk1.1/work/demos/Warp/src/devAMG8834.c.obj
LOAD CMakeFiles/Warp.dir/home/students/rr632/Warp-firmware/build/ksdk1.1/work/demos/Warp/src/devRV8803C7.c.obj
LOAD CMakeFiles/Warp.dir/home/students/rr632/Warp-firmware/build/ksdk1.1/work/demos/Warp/src/devBGX.c.obj
LOAD CMakeFiles/Warp.dir/home/students/rr632/Warp-firmware/build/ksdk1.1/work/demos/Warp/src/devAS7262.c.obj
LOAD CMakeFiles/Warp.dir/home/students/rr632/Warp-firmware/build/ksdk1.1/work/demos/Warp/src/devAS7263.c.obj
LOAD CMakeFiles/Warp.dir/home/students/rr632/Warp-firmware/build/ksdk1.1/work/demos/Warp/src/SEGGER_RTT.c.obj
LOAD CMakeFiles/Warp.dir/home/students/rr632/Warp-firmware/build/ksdk1.1/work/demos/Warp/src/SEGGER_RTT_printf.c.obj
LOAD CMakeFiles/Warp.dir/home/students/rr632/Warp-firmware/build/ksdk1.1/work/platform/drivers/src/i2c/fsl_i2c_irq.c.obj
LOAD CMakeFiles/Warp.dir/home/students/rr632/Warp-firmware/build/ksdk1.1/work/platform/drivers/src/spi/fsl_spi_irq.c.obj
LOAD CMakeFiles/Warp.dir/home/students/rr632/Warp-firmware/build/ksdk1.1/work/platform/drivers/src/lpuart/fsl_lpuart_irq.c.obj
LOAD CMakeFiles/Warp.dir/home/students/rr632/Warp-firmware/build/ksdk1.1/work/platform/startup/MKL03Z4/system_MKL03Z4.c.obj
LOAD CMakeFiles/Warp.dir/home/students/rr632/Warp-firmware/build/ksdk1.1/work/platform/startup/startup.c.obj
LOAD CMakeFiles/Warp.dir/home/students/rr632/Warp-firmware/build/ksdk1.1/work/boards/Warp/gpio_pins.c.obj
START GROUP
LOAD ../../../../lib/ksdk_platform_lib/armgcc/KL03Z4/release/libksdk_platform.a
LOAD /usr/lib/gcc/arm-none-eabi/9.2.1/../../../arm-none-eabi/lib/thumb/v6-m/nofp/libm.a
LOAD /usr/lib/gcc/arm-none-eabi/9.2.1/../../../arm-none-eabi/lib/thumb/v6-m/nofp/libc_nano.a
LOAD /usr/lib/gcc/arm-none-eabi/9.2.1/thumb/v6-m/nofp/libgcc.a
LOAD /usr/lib/gcc/arm-none-eabi/9.2.1/../../../arm-none-eabi/lib/thumb/v6-m/nofp/libnosys.a
END GROUP
START GROUP
LOAD /usr/lib/gcc/arm-none-eabi/9.2.1/thumb/v6-m/nofp/libgcc.a
LOAD /usr/lib/gcc/arm-none-eabi/9.2.1/../../../arm-none-eabi/lib/thumb/v6-m/nofp/libc_nano.a
END GROUP
START GROUP
LOAD /usr/lib/gcc/arm-none-eabi/9.2.1/thumb/v6-m/nofp/libgcc.a
LOAD /usr/lib/gcc/arm-none-eabi/9.2.1/../../../arm-none-eabi/lib/thumb/v6-m/nofp/libc_nano.a
END GROUP
LOAD /usr/lib/gcc/arm-none-eabi/9.2.1/thumb/v6-m/nofp/crtend.o
LOAD /usr/lib/gcc/arm-none-eabi/9.2.1/thumb/v6-m/nofp/crtn.o
                0x0000000000000000                HEAP_SIZE = DEFINED (__heap_size__)?__heap_size__:0x200
                0x0000000000000200                STACK_SIZE = DEFINED (__stack_size__)?__stack_size__:0x50
                0x0000000000000000                M_VECTOR_RAM_SIZE = DEFINED (__ram_vector_table__)?0x100:0x0

.interrupts     0x0000000000000000       0xc0
                0x0000000000000000                __VECTOR_TABLE = .
                0x0000000000000000                . = ALIGN (0x4)
 *(.isr_vector)
 .isr_vector    0x0000000000000000       0xc0 CMakeFiles/Warp.dir/home/students/rr632/Warp-firmware/build/ksdk1.1/work/platform/startup/MKL03Z4/gcc/startup_MKL03Z4.S.obj
                0x0000000000000000                __isr_vector
                0x00000000000000c0                . = ALIGN (0x4)

.flash_config   0x0000000000000400       0x10
                0x0000000000000400                . = ALIGN (0x4)
 *(.FlashConfig)
 .FlashConfig   0x0000000000000400       0x10 CMakeFiles/Warp.dir/home/students/rr632/Warp-firmware/build/ksdk1.1/work/platform/startup/MKL03Z4/gcc/startup_MKL03Z4.S.obj
                0x0000000000000410                . = ALIGN (0x4)

.text           0x0000000000000410     0x5b7c
                0x0000000000000410                . = ALIGN (0x4)
 *(.text)
 .text          0x0000000000000410       0x98 /usr/lib/gcc/arm-none-eabi/9.2.1/thumb/v6-m/nofp/crtbegin.o
 .text          0x00000000000004a8       0x74 /usr/lib/gcc/arm-none-eabi/9.2.1/../../../arm-none-eabi/lib/thumb/v6-m/nofp/crt0.o
                0x00000000000004a8                _stack_init
                0x00000000000004b4                _mainCRTStartup
                0x00000000000004b4                _start
 .text          0x000000000000051c       0x30 CMakeFiles/Warp.dir/home/students/rr632/Warp-firmware/build/ksdk1.1/work/platform/startup/MKL03Z4/gcc/startup_MKL03Z4.S.obj
                0x000000000000051c                Reset_Handler
                0x0000000000000544                Reserved18_IRQHandler
                0x0000000000000544                Reserved16_IRQHandler
                0x0000000000000544                HardFault_Handler
                0x0000000000000544                SysTick_Handler
                0x0000000000000544                PendSV_Handler
                0x0000000000000544                NMI_Handler
                0x0000000000000544                Reserved19_IRQHandler
                0x0000000000000544                Reserved29_IRQHandler
                0x0000000000000544                TPM0_IRQHandler
                0x0000000000000544                Reserved42_IRQHandler
                0x0000000000000544                ADC0_IRQHandler
                0x0000000000000544                Reserved39_IRQHandler
                0x0000000000000544                DefaultISR
                0x0000000000000544                Reserved25_IRQHandler
                0x0000000000000544                PORTB_IRQHandler
                0x0000000000000544                Reserved43_IRQHandler
                0x0000000000000544                Reserved27_IRQHandler
                0x0000000000000544                Reserved35_IRQHandler
                0x0000000000000544                Reserved20_IRQHandler
                0x0000000000000544                Reserved17_IRQHandler
                0x0000000000000544                Reserved41_IRQHandler
                0x0000000000000544                SVC_Handler
                0x0000000000000544                Reserved45_IRQHandler
                0x0000000000000544                Reserved30_IRQHandler
                0x0000000000000544                PMC_IRQHandler
                0x0000000000000544                TPM1_IRQHandler
                0x0000000000000544                FTFA_IRQHandler
                0x0000000000000544                Reserved40_IRQHandler
                0x0000000000000544                Reserved38_IRQHandler
                0x0000000000000544                LPTMR0_IRQHandler
                0x0000000000000544                CMP0_IRQHandler
 .text          0x000000000000054c       0xa8 /usr/lib/gcc/arm-none-eabi/9.2.1/../../../arm-none-eabi/lib/thumb/v6-m/nofp/libm.a(lib_a-s_round.o)
                0x000000000000054c                round
 .text          0x00000000000005f4       0x5c /usr/lib/gcc/arm-none-eabi/9.2.1/../../../arm-none-eabi/lib/thumb/v6-m/nofp/libm.a(lib_a-w_sqrt.o)
                0x00000000000005f4                sqrt
 .text          0x0000000000000650      0x1b4 /usr/lib/gcc/arm-none-eabi/9.2.1/../../../arm-none-eabi/lib/thumb/v6-m/nofp/libm.a(lib_a-e_sqrt.o)
                0x0000000000000650                __ieee754_sqrt
 .text          0x0000000000000804        0x8 /usr/lib/gcc/arm-none-eabi/9.2.1/../../../arm-none-eabi/lib/thumb/v6-m/nofp/libc_nano.a(lib_a-abs.o)
                0x0000000000000804                abs
 .text          0x000000000000080c       0x10 /usr/lib/gcc/arm-none-eabi/9.2.1/../../../arm-none-eabi/lib/thumb/v6-m/nofp/libc_nano.a(lib_a-atexit.o)
                0x000000000000080c                atexit
 .text          0x000000000000081c        0xc /usr/lib/gcc/arm-none-eabi/9.2.1/../../../arm-none-eabi/lib/thumb/v6-m/nofp/libc_nano.a(lib_a-bzero.o)
                0x000000000000081c                bzero
 .text          0x0000000000000828        0xc /usr/lib/gcc/arm-none-eabi/9.2.1/../../../arm-none-eabi/lib/thumb/v6-m/nofp/libc_nano.a(lib_a-errno.o)
                0x0000000000000828                __errno
 .text          0x0000000000000834       0x2c /usr/lib/gcc/arm-none-eabi/9.2.1/../../../arm-none-eabi/lib/thumb/v6-m/nofp/libc_nano.a(lib_a-exit.o)
                0x0000000000000834                exit
 .text          0x0000000000000860       0x28 /usr/lib/gcc/arm-none-eabi/9.2.1/../../../arm-none-eabi/lib/thumb/v6-m/nofp/libc_nano.a(lib_a-fini.o)
                0x0000000000000860                __libc_fini_array
 .text          0x0000000000000888       0x44 /usr/lib/gcc/arm-none-eabi/9.2.1/../../../arm-none-eabi/lib/thumb/v6-m/nofp/libc_nano.a(lib_a-init.o)
                0x0000000000000888                __libc_init_array
 .text          0x00000000000008cc       0x28 /usr/lib/gcc/arm-none-eabi/9.2.1/../../../arm-none-eabi/lib/thumb/v6-m/nofp/libc_nano.a(lib_a-malloc.o)
                0x00000000000008cc                malloc
                0x00000000000008e0                free
 .text          0x00000000000008f4       0xa8 /usr/lib/gcc/arm-none-eabi/9.2.1/../../../arm-none-eabi/lib/thumb/v6-m/nofp/libc_nano.a(lib_a-memcpy-stub.o)
                0x00000000000008f4                memcpy
 .text          0x000000000000099c       0xa8 /usr/lib/gcc/arm-none-eabi/9.2.1/../../../arm-none-eabi/lib/thumb/v6-m/nofp/libc_nano.a(lib_a-memset.o)
                0x000000000000099c                memset
 .text          0x0000000000000a44       0xac /usr/lib/gcc/arm-none-eabi/9.2.1/../../../arm-none-eabi/lib/thumb/v6-m/nofp/libc_nano.a(lib_a-nano-freer.o)
                0x0000000000000a44                _free_r
 .text          0x0000000000000af0       0xcc /usr/lib/gcc/arm-none-eabi/9.2.1/../../../arm-none-eabi/lib/thumb/v6-m/nofp/libc_nano.a(lib_a-nano-mallocr.o)
                0x0000000000000af0                _malloc_r
 .text          0x0000000000000bbc       0x24 /usr/lib/gcc/arm-none-eabi/9.2.1/../../../arm-none-eabi/lib/thumb/v6-m/nofp/libc_nano.a(lib_a-sbrkr.o)
                0x0000000000000bbc                _sbrk_r
 .text          0x0000000000000be0       0x10 /usr/lib/gcc/arm-none-eabi/9.2.1/../../../arm-none-eabi/lib/thumb/v6-m/nofp/libc_nano.a(lib_a-strcpy.o)
                0x0000000000000be0                strcpy
 .text          0x0000000000000bf0       0x68 /usr/lib/gcc/arm-none-eabi/9.2.1/../../../arm-none-eabi/lib/thumb/v6-m/nofp/libc_nano.a(lib_a-strlen-stub.o)
                0x0000000000000bf0                strlen
 .text          0x0000000000000c58       0xdc /usr/lib/gcc/arm-none-eabi/9.2.1/../../../arm-none-eabi/lib/thumb/v6-m/nofp/libc_nano.a(lib_a-__atexit.o)
                0x0000000000000c58                __register_exitproc
 .text          0x0000000000000d34       0xbc /usr/lib/gcc/arm-none-eabi/9.2.1/../../../arm-none-eabi/lib/thumb/v6-m/nofp/libc_nano.a(lib_a-__call_atexit.o)
                0x0000000000000d34                __call_exitprocs
 .text          0x0000000000000df0        0x8 /usr/lib/gcc/arm-none-eabi/9.2.1/../../../arm-none-eabi/lib/thumb/v6-m/nofp/libc_nano.a(lib_a-mlock.o)
                0x0000000000000df0                __malloc_lock
                0x0000000000000df4                __malloc_unlock
 .text          0x0000000000000df8       0x14 /usr/lib/gcc/arm-none-eabi/9.2.1/thumb/v6-m/nofp/libgcc.a(_thumb1_case_uqi.o)
                0x0000000000000df8                __gnu_thumb1_case_uqi
 .text          0x0000000000000e0c       0x14 /usr/lib/gcc/arm-none-eabi/9.2.1/thumb/v6-m/nofp/libgcc.a(_thumb1_case_shi.o)
                0x0000000000000e0c                __gnu_thumb1_case_shi
 .text          0x0000000000000e20      0x114 /usr/lib/gcc/arm-none-eabi/9.2.1/thumb/v6-m/nofp/libgcc.a(_udivsi3.o)
                0x0000000000000e20                __udivsi3
                0x0000000000000e20                __aeabi_uidiv
                0x0000000000000f2c                __aeabi_uidivmod
 .text          0x0000000000000f34      0x1d4 /usr/lib/gcc/arm-none-eabi/9.2.1/thumb/v6-m/nofp/libgcc.a(_divsi3.o)
                0x0000000000000f34                __aeabi_idiv
                0x0000000000000f34                __divsi3
                0x0000000000001100                __aeabi_idivmod
 .text          0x0000000000001108        0x4 /usr/lib/gcc/arm-none-eabi/9.2.1/thumb/v6-m/nofp/libgcc.a(_dvmd_tls.o)
                0x0000000000001108                __aeabi_ldiv0
                0x0000000000001108                __aeabi_idiv0
 .text          0x000000000000110c       0x7c /usr/lib/gcc/arm-none-eabi/9.2.1/thumb/v6-m/nofp/libgcc.a(_arm_cmpdf2.o)
                0x000000000000110c                __aeabi_cdrcmple
                0x000000000000111c                __aeabi_cdcmple
                0x000000000000111c                __aeabi_cdcmpeq
                0x000000000000112c                __aeabi_dcmpeq
                0x0000000000001138                __aeabi_dcmplt
                0x000000000000114c                __aeabi_dcmple
                0x0000000000001160                __aeabi_dcmpgt
                0x0000000000001174                __aeabi_dcmpge
 .text          0x0000000000001188       0x3c /usr/lib/gcc/arm-none-eabi/9.2.1/thumb/v6-m/nofp/libgcc.a(_fixunsdfsi.o)
                0x0000000000001188                __fixunsdfsi
                0x0000000000001188                __aeabi_d2uiz
 .text          0x00000000000011c4      0x6d4 /usr/lib/gcc/arm-none-eabi/9.2.1/thumb/v6-m/nofp/libgcc.a(adddf3.o)
                0x00000000000011c4                __aeabi_dadd
 .text          0x0000000000001898      0x5d0 /usr/lib/gcc/arm-none-eabi/9.2.1/thumb/v6-m/nofp/libgcc.a(divdf3.o)
                0x0000000000001898                __aeabi_ddiv
 .text          0x0000000000001e68       0x78 /usr/lib/gcc/arm-none-eabi/9.2.1/thumb/v6-m/nofp/libgcc.a(eqdf2.o)
                0x0000000000001e68                __eqdf2
                0x0000000000001e68                __nedf2
 .text          0x0000000000001ee0       0xe4 /usr/lib/gcc/arm-none-eabi/9.2.1/thumb/v6-m/nofp/libgcc.a(gedf2.o)
                0x0000000000001ee0                __gtdf2
                0x0000000000001ee0                __gedf2
 .text          0x0000000000001fc4       0xe0 /usr/lib/gcc/arm-none-eabi/9.2.1/thumb/v6-m/nofp/libgcc.a(ledf2.o)
                0x0000000000001fc4                __ltdf2
                0x0000000000001fc4                __ledf2
 .text          0x00000000000020a4      0x4d8 /usr/lib/gcc/arm-none-eabi/9.2.1/thumb/v6-m/nofp/libgcc.a(muldf3.o)
                0x00000000000020a4                __aeabi_dmul
 .text          0x000000000000257c      0x724 /usr/lib/gcc/arm-none-eabi/9.2.1/thumb/v6-m/nofp/libgcc.a(subdf3.o)
                0x000000000000257c                __aeabi_dsub
 .text          0x0000000000002ca0       0x3c /usr/lib/gcc/arm-none-eabi/9.2.1/thumb/v6-m/nofp/libgcc.a(unorddf2.o)
                0x0000000000002ca0                __aeabi_dcmpun
 .text          0x0000000000002cdc       0x6c /usr/lib/gcc/arm-none-eabi/9.2.1/thumb/v6-m/nofp/libgcc.a(fixdfsi.o)
                0x0000000000002cdc                __aeabi_d2iz
 .text          0x0000000000002d48       0x60 /usr/lib/gcc/arm-none-eabi/9.2.1/thumb/v6-m/nofp/libgcc.a(floatsidf.o)
                0x0000000000002d48                __aeabi_i2d
 .text          0x0000000000002da8       0x3c /usr/lib/gcc/arm-none-eabi/9.2.1/thumb/v6-m/nofp/libgcc.a(_clzsi2.o)
                0x0000000000002da8                __clzsi2
 .text          0x0000000000002de4        0x4 /usr/lib/gcc/arm-none-eabi/9.2.1/../../../arm-none-eabi/lib/thumb/v6-m/nofp/libnosys.a(_exit.o)
                0x0000000000002de4                _exit
 *(.text*)
 .text._sbrk    0x0000000000002de8       0x38 CMakeFiles/Warp.dir/home/students/rr632/Warp-firmware/build/ksdk1.1/work/platform/utilities/src/fsl_misc_utilities.c.obj
                0x0000000000002de8                _sbrk
 .text.clockManagerCallbackRoutine
                0x0000000000002e20        0xc CMakeFiles/Warp.dir/home/students/rr632/Warp-firmware/build/ksdk1.1/work/demos/Warp/src/script.c.obj
                0x0000000000002e20                clockManagerCallbackRoutine
 .text.callback0
                0x0000000000002e2c       0x14 CMakeFiles/Warp.dir/home/students/rr632/Warp-firmware/build/ksdk1.1/work/demos/Warp/src/script.c.obj
                0x0000000000002e2c                callback0
 .text.lowPowerPinStates
                0x0000000000002e40       0xb8 CMakeFiles/Warp.dir/home/students/rr632/Warp-firmware/build/ksdk1.1/work/demos/Warp/src/script.c.obj
 .text.RTC_IRQHandler
                0x0000000000002ef8       0x16 CMakeFiles/Warp.dir/home/students/rr632/Warp-firmware/build/ksdk1.1/work/demos/Warp/src/script.c.obj
                0x0000000000002ef8                RTC_IRQHandler
 *fill*         0x0000000000002f0e        0x2 
 .text.RTC_Seconds_IRQHandler
                0x0000000000002f10       0x10 CMakeFiles/Warp.dir/home/students/rr632/Warp-firmware/build/ksdk1.1/work/demos/Warp/src/script.c.obj
                0x0000000000002f10                RTC_Seconds_IRQHandler
 .text.LLWU_IRQHandler
                0x0000000000002f20       0x10 CMakeFiles/Warp.dir/home/students/rr632/Warp-firmware/build/ksdk1.1/work/demos/Warp/src/script.c.obj
                0x0000000000002f20                LLWU_IRQHandler
 .text.PORTA_IRQHandler
                0x0000000000002f30       0x10 CMakeFiles/Warp.dir/home/students/rr632/Warp-firmware/build/ksdk1.1/work/demos/Warp/src/script.c.obj
                0x0000000000002f30                PORTA_IRQHandler
 .text.warpEnableI2Cpins
                0x0000000000002f40       0x2c CMakeFiles/Warp.dir/home/students/rr632/Warp-firmware/build/ksdk1.1/work/demos/Warp/src/script.c.obj
                0x0000000000002f40                warpEnableI2Cpins
 .text.warpPrint
                0x0000000000002f6c       0x34 CMakeFiles/Warp.dir/home/students/rr632/Warp-firmware/build/ksdk1.1/work/demos/Warp/src/script.c.obj
                0x0000000000002f6c                warpPrint
 .text.warpScaleSupplyVoltage
                0x0000000000002fa0      0x23c CMakeFiles/Warp.dir/home/students/rr632/Warp-firmware/build/ksdk1.1/work/demos/Warp/src/script.c.obj
                0x0000000000002fa0                warpScaleSupplyVoltage
 .text.startup.main
                0x00000000000031dc      0x260 CMakeFiles/Warp.dir/home/students/rr632/Warp-firmware/build/ksdk1.1/work/demos/Warp/src/script.c.obj
                0x00000000000031dc                main
 .text.setSleepRtcAlarm
                0x000000000000343c       0x2e CMakeFiles/Warp.dir/home/students/rr632/Warp-firmware/build/ksdk1.1/work/demos/Warp/src/powermodes.c.obj
 *fill*         0x000000000000346a        0x2 
 .text.gpioDisableWakeUp
                0x000000000000346c       0x18 CMakeFiles/Warp.dir/home/students/rr632/Warp-firmware/build/ksdk1.1/work/demos/Warp/src/powermodes.c.obj
                0x000000000000346c                gpioDisableWakeUp
 .text.warpSetLowPowerMode
                0x0000000000003484      0x110 CMakeFiles/Warp.dir/home/students/rr632/Warp-firmware/build/ksdk1.1/work/demos/Warp/src/powermodes.c.obj
                0x0000000000003484                warpSetLowPowerMode
 .text.writeSensorRegisterMMA8451Q.part.0
                0x0000000000003594       0x58 CMakeFiles/Warp.dir/home/students/rr632/Warp-firmware/build/ksdk1.1/work/demos/Warp/src/devMMA8451Q.c.obj
 .text.initMMA8451Q
                0x00000000000035ec        0xc CMakeFiles/Warp.dir/home/students/rr632/Warp-firmware/build/ksdk1.1/work/demos/Warp/src/devMMA8451Q.c.obj
                0x00000000000035ec                initMMA8451Q
 .text.configureSensorMMA8451Q
                0x00000000000035f8       0x48 CMakeFiles/Warp.dir/home/students/rr632/Warp-firmware/build/ksdk1.1/work/demos/Warp/src/devMMA8451Q.c.obj
                0x00000000000035f8                configureSensorMMA8451Q
 .text.readSensorRegisterMMA8451Q
                0x0000000000003640       0x7c CMakeFiles/Warp.dir/home/students/rr632/Warp-firmware/build/ksdk1.1/work/demos/Warp/src/devMMA8451Q.c.obj
                0x0000000000003640                readSensorRegisterMMA8451Q
 .text.falldetectorMMA8451Q
                0x00000000000036bc      0x19c CMakeFiles/Warp.dir/home/students/rr632/Warp-firmware/build/ksdk1.1/work/demos/Warp/src/devMMA8451Q.c.obj
                0x00000000000036bc                falldetectorMMA8451Q
 .text._GetAvailWriteSpace
                0x0000000000003858       0x12 CMakeFiles/Warp.dir/home/students/rr632/Warp-firmware/build/ksdk1.1/work/demos/Warp/src/SEGGER_RTT.c.obj
 .text._WriteNoCheck
                0x000000000000386a       0x30 CMakeFiles/Warp.dir/home/students/rr632/Warp-firmware/build/ksdk1.1/work/demos/Warp/src/SEGGER_RTT.c.obj
 .text._WriteBlocking
                0x000000000000389a       0x5a CMakeFiles/Warp.dir/home/students/rr632/Warp-firmware/build/ksdk1.1/work/demos/Warp/src/SEGGER_RTT.c.obj
 .text._DoInit  0x00000000000038f4       0x5c CMakeFiles/Warp.dir/home/students/rr632/Warp-firmware/build/ksdk1.1/work/demos/Warp/src/SEGGER_RTT.c.obj
 .text.SEGGER_RTT_WriteNoLock
                0x0000000000003950       0x6c CMakeFiles/Warp.dir/home/students/rr632/Warp-firmware/build/ksdk1.1/work/demos/Warp/src/SEGGER_RTT.c.obj
                0x0000000000003950                SEGGER_RTT_WriteNoLock
 .text.SEGGER_RTT_Write
                0x00000000000039bc       0x34 CMakeFiles/Warp.dir/home/students/rr632/Warp-firmware/build/ksdk1.1/work/demos/Warp/src/SEGGER_RTT.c.obj
                0x00000000000039bc                SEGGER_RTT_Write
 .text.SEGGER_RTT_WriteString
                0x00000000000039f0       0x18 CMakeFiles/Warp.dir/home/students/rr632/Warp-firmware/build/ksdk1.1/work/demos/Warp/src/SEGGER_RTT.c.obj
                0x00000000000039f0                SEGGER_RTT_WriteString
 .text.SEGGER_RTT_ConfigUpBuffer
                0x0000000000003a08       0x60 CMakeFiles/Warp.dir/home/students/rr632/Warp-firmware/build/ksdk1.1/work/demos/Warp/src/SEGGER_RTT.c.obj
                0x0000000000003a08                SEGGER_RTT_ConfigUpBuffer
 .text._StoreChar
                0x0000000000003a68       0x3e CMakeFiles/Warp.dir/home/students/rr632/Warp-firmware/build/ksdk1.1/work/demos/Warp/src/SEGGER_RTT_printf.c.obj
 *fill*         0x0000000000003aa6        0x2 
 .text._PrintUnsigned
                0x0000000000003aa8       0xe0 CMakeFiles/Warp.dir/home/students/rr632/Warp-firmware/build/ksdk1.1/work/demos/Warp/src/SEGGER_RTT_printf.c.obj
 .text.SEGGER_RTT_vprintf
                0x0000000000003b88      0x26e CMakeFiles/Warp.dir/home/students/rr632/Warp-firmware/build/ksdk1.1/work/demos/Warp/src/SEGGER_RTT_printf.c.obj
                0x0000000000003b88                SEGGER_RTT_vprintf
 .text.I2C0_IRQHandler
                0x0000000000003df6        0xa CMakeFiles/Warp.dir/home/students/rr632/Warp-firmware/build/ksdk1.1/work/platform/drivers/src/i2c/fsl_i2c_irq.c.obj
                0x0000000000003df6                I2C0_IRQHandler
 .text.SPI0_IRQHandler
                0x0000000000003e00        0xa CMakeFiles/Warp.dir/home/students/rr632/Warp-firmware/build/ksdk1.1/work/platform/drivers/src/spi/fsl_spi_irq.c.obj
                0x0000000000003e00                SPI0_IRQHandler
 .text.LPUART0_IRQHandler
                0x0000000000003e0a        0xa CMakeFiles/Warp.dir/home/students/rr632/Warp-firmware/build/ksdk1.1/work/platform/drivers/src/lpuart/fsl_lpuart_irq.c.obj
                0x0000000000003e0a                LPUART0_IRQHandler
 .text.SystemInit
                0x0000000000003e14       0x84 CMakeFiles/Warp.dir/home/students/rr632/Warp-firmware/build/ksdk1.1/work/platform/startup/MKL03Z4/system_MKL03Z4.c.obj
                0x0000000000003e14                SystemInit
 .text.init_data_bss
                0x0000000000003e98       0x70 CMakeFiles/Warp.dir/home/students/rr632/Warp-firmware/build/ksdk1.1/work/platform/startup/startup.c.obj
                0x0000000000003e98                init_data_bss
 .text.OSA_SemaCreate
                0x0000000000003f08        0xe ../../../../lib/ksdk_platform_lib/armgcc/KL03Z4/release/libksdk_platform.a(fsl_os_abstraction_bm.c.obj)
                0x0000000000003f08                OSA_SemaCreate
 .text.OSA_SemaPost
                0x0000000000003f16       0x20 ../../../../lib/ksdk_platform_lib/armgcc/KL03Z4/release/libksdk_platform.a(fsl_os_abstraction_bm.c.obj)
                0x0000000000003f16                OSA_SemaPost
 .text.OSA_EventSet
                0x0000000000003f36       0x18 ../../../../lib/ksdk_platform_lib/armgcc/KL03Z4/release/libksdk_platform.a(fsl_os_abstraction_bm.c.obj)
                0x0000000000003f36                OSA_EventSet
 *fill*         0x0000000000003f4e        0x2 
 .text.task_init
                0x0000000000003f50       0x38 ../../../../lib/ksdk_platform_lib/armgcc/KL03Z4/release/libksdk_platform.a(fsl_os_abstraction_bm.c.obj)
                0x0000000000003f50                task_init
 .text.OSA_TimeGetMsec
                0x0000000000003f88       0x10 ../../../../lib/ksdk_platform_lib/armgcc/KL03Z4/release/libksdk_platform.a(fsl_os_abstraction_bm.c.obj)
                0x0000000000003f88                OSA_TimeGetMsec
 .text.OSA_SemaWait
                0x0000000000003f98       0x7a ../../../../lib/ksdk_platform_lib/armgcc/KL03Z4/release/libksdk_platform.a(fsl_os_abstraction_bm.c.obj)
                0x0000000000003f98                OSA_SemaWait
 .text.OSA_TimeDelay
                0x0000000000004012       0x26 ../../../../lib/ksdk_platform_lib/armgcc/KL03Z4/release/libksdk_platform.a(fsl_os_abstraction_bm.c.obj)
                0x0000000000004012                OSA_TimeDelay
 .text.OSA_EnterCritical
                0x0000000000004038        0xc ../../../../lib/ksdk_platform_lib/armgcc/KL03Z4/release/libksdk_platform.a(fsl_os_abstraction_bm.c.obj)
                0x0000000000004038                OSA_EnterCritical
 .text.OSA_ExitCritical
                0x0000000000004044        0xc ../../../../lib/ksdk_platform_lib/armgcc/KL03Z4/release/libksdk_platform.a(fsl_os_abstraction_bm.c.obj)
                0x0000000000004044                OSA_ExitCritical
 .text.OSA_Init
                0x0000000000004050       0x48 ../../../../lib/ksdk_platform_lib/armgcc/KL03Z4/release/libksdk_platform.a(fsl_os_abstraction_bm.c.obj)
                0x0000000000004050                OSA_Init
 .text.CLOCK_SYS_Init
                0x0000000000004098       0x18 ../../../../lib/ksdk_platform_lib/armgcc/KL03Z4/release/libksdk_platform.a(fsl_clock_manager.c.obj)
                0x0000000000004098                CLOCK_SYS_Init
 .text.CLOCK_SYS_UpdateConfiguration
                0x00000000000040b0       0xfc ../../../../lib/ksdk_platform_lib/armgcc/KL03Z4/release/libksdk_platform.a(fsl_clock_manager.c.obj)
                0x00000000000040b0                CLOCK_SYS_UpdateConfiguration
 .text.CLOCK_SYS_GetCurrentConfiguration
                0x00000000000041ac        0xc ../../../../lib/ksdk_platform_lib/armgcc/KL03Z4/release/libksdk_platform.a(fsl_clock_manager.c.obj)
                0x00000000000041ac                CLOCK_SYS_GetCurrentConfiguration
 .text.CLOCK_SYS_SetMcgliteMode
                0x00000000000041b8       0x84 ../../../../lib/ksdk_platform_lib/armgcc/KL03Z4/release/libksdk_platform.a(fsl_clock_manager.c.obj)
                0x00000000000041b8                CLOCK_SYS_SetMcgliteMode
 .text.SIM_HAL_EnableClock.constprop.0
                0x000000000000423c       0x28 ../../../../lib/ksdk_platform_lib/armgcc/KL03Z4/release/libksdk_platform.a(fsl_clock_MKL03Z4.c.obj)
 .text.CLOCK_SYS_SetConfiguration
                0x0000000000004264       0x58 ../../../../lib/ksdk_platform_lib/armgcc/KL03Z4/release/libksdk_platform.a(fsl_clock_MKL03Z4.c.obj)
                0x0000000000004264                CLOCK_SYS_SetConfiguration
 .text.CLOCK_SYS_GetCoreClockFreq
                0x00000000000042bc       0x20 ../../../../lib/ksdk_platform_lib/armgcc/KL03Z4/release/libksdk_platform.a(fsl_clock_MKL03Z4.c.obj)
                0x00000000000042bc                CLOCK_SYS_GetCoreClockFreq
 .text.CLOCK_SYS_GetSystemClockFreq
                0x00000000000042dc        0x8 ../../../../lib/ksdk_platform_lib/armgcc/KL03Z4/release/libksdk_platform.a(fsl_clock_MKL03Z4.c.obj)
                0x00000000000042dc                CLOCK_SYS_GetSystemClockFreq
 .text.CLOCK_SYS_GetBusClockFreq
                0x00000000000042e4       0x20 ../../../../lib/ksdk_platform_lib/armgcc/KL03Z4/release/libksdk_platform.a(fsl_clock_MKL03Z4.c.obj)
                0x00000000000042e4                CLOCK_SYS_GetBusClockFreq
 .text.CLOCK_SYS_GetFlashClockFreq
                0x0000000000004304        0x8 ../../../../lib/ksdk_platform_lib/armgcc/KL03Z4/release/libksdk_platform.a(fsl_clock_MKL03Z4.c.obj)
                0x0000000000004304                CLOCK_SYS_GetFlashClockFreq
 .text.CLOCK_SYS_GetExternalRefClock32kFreq
                0x000000000000430c       0x3c ../../../../lib/ksdk_platform_lib/armgcc/KL03Z4/release/libksdk_platform.a(fsl_clock_MKL03Z4.c.obj)
                0x000000000000430c                CLOCK_SYS_GetExternalRefClock32kFreq
 .text.CLOCK_SYS_GetRtcFreq
                0x0000000000004348        0x8 ../../../../lib/ksdk_platform_lib/armgcc/KL03Z4/release/libksdk_platform.a(fsl_clock_MKL03Z4.c.obj)
                0x0000000000004348                CLOCK_SYS_GetRtcFreq
 .text.CLOCK_SYS_EnablePortClock
                0x0000000000004350       0x10 ../../../../lib/ksdk_platform_lib/armgcc/KL03Z4/release/libksdk_platform.a(fsl_clock_MKL03Z4.c.obj)
                0x0000000000004350                CLOCK_SYS_EnablePortClock
 .text.CLOCK_SYS_EnableI2cClock
                0x0000000000004360        0xa ../../../../lib/ksdk_platform_lib/armgcc/KL03Z4/release/libksdk_platform.a(fsl_clock_MKL03Z4.c.obj)
                0x0000000000004360                CLOCK_SYS_EnableI2cClock
 *fill*         0x000000000000436a        0x2 
 .text.INT_SYS_EnableIRQGlobal
                0x000000000000436c       0x18 ../../../../lib/ksdk_platform_lib/armgcc/KL03Z4/release/libksdk_platform.a(fsl_interrupt_manager.c.obj)
                0x000000000000436c                INT_SYS_EnableIRQGlobal
 .text.INT_SYS_DisableIRQGlobal
                0x0000000000004384       0x10 ../../../../lib/ksdk_platform_lib/armgcc/KL03Z4/release/libksdk_platform.a(fsl_interrupt_manager.c.obj)
                0x0000000000004384                INT_SYS_DisableIRQGlobal
 .text.POWER_SYS_WaitForVlprStatus
                0x0000000000004394       0x24 ../../../../lib/ksdk_platform_lib/armgcc/KL03Z4/release/libksdk_platform.a(fsl_power_manager.c.obj)
 .text.POWER_SYS_WaitForRunStatus
                0x00000000000043b8       0x3c ../../../../lib/ksdk_platform_lib/armgcc/KL03Z4/release/libksdk_platform.a(fsl_power_manager.c.obj)
 .text.POWER_SYS_Init
                0x00000000000043f4       0x44 ../../../../lib/ksdk_platform_lib/armgcc/KL03Z4/release/libksdk_platform.a(fsl_power_manager.c.obj)
                0x00000000000043f4                POWER_SYS_Init
 .text.POWER_SYS_SetMode
                0x0000000000004438      0x2e8 ../../../../lib/ksdk_platform_lib/armgcc/KL03Z4/release/libksdk_platform.a(fsl_power_manager.c.obj)
                0x0000000000004438                POWER_SYS_SetMode
 .text.POWER_SYS_GetCurrentMode
                0x0000000000004720       0x20 ../../../../lib/ksdk_platform_lib/armgcc/KL03Z4/release/libksdk_platform.a(fsl_power_manager.c.obj)
                0x0000000000004720                POWER_SYS_GetCurrentMode
 .text.GPIO_DRV_InputPinInit
                0x0000000000004740       0x90 ../../../../lib/ksdk_platform_lib/armgcc/KL03Z4/release/libksdk_platform.a(fsl_gpio_driver.c.obj)
                0x0000000000004740                GPIO_DRV_InputPinInit
 .text.GPIO_DRV_OutputPinInit
                0x00000000000047d0       0x58 ../../../../lib/ksdk_platform_lib/armgcc/KL03Z4/release/libksdk_platform.a(fsl_gpio_driver.c.obj)
                0x00000000000047d0                GPIO_DRV_OutputPinInit
 .text.GPIO_DRV_Init
                0x0000000000004828       0x34 ../../../../lib/ksdk_platform_lib/armgcc/KL03Z4/release/libksdk_platform.a(fsl_gpio_driver.c.obj)
                0x0000000000004828                GPIO_DRV_Init
 .text.GPIO_DRV_SetPinOutput
                0x000000000000485c       0x1c ../../../../lib/ksdk_platform_lib/armgcc/KL03Z4/release/libksdk_platform.a(fsl_gpio_driver.c.obj)
                0x000000000000485c                GPIO_DRV_SetPinOutput
 .text.GPIO_DRV_ClearPinOutput
                0x0000000000004878       0x1c ../../../../lib/ksdk_platform_lib/armgcc/KL03Z4/release/libksdk_platform.a(fsl_gpio_driver.c.obj)
                0x0000000000004878                GPIO_DRV_ClearPinOutput
 .text.I2C_DRV_IRQHandler
                0x0000000000004894       0x28 ../../../../lib/ksdk_platform_lib/armgcc/KL03Z4/release/libksdk_platform.a(fsl_i2c_shared_function.c.obj)
                0x0000000000004894                I2C_DRV_IRQHandler
 .text.I2C_HAL_WriteByte
                0x00000000000048bc       0x14 ../../../../lib/ksdk_platform_lib/armgcc/KL03Z4/release/libksdk_platform.a(fsl_i2c_master_driver.c.obj)
 .text.I2C_DRV_MasterWait
                0x00000000000048d0       0x2c ../../../../lib/ksdk_platform_lib/armgcc/KL03Z4/release/libksdk_platform.a(fsl_i2c_master_driver.c.obj)
 .text.I2C_DRV_CompleteTransfer
                0x00000000000048fc       0x4c ../../../../lib/ksdk_platform_lib/armgcc/KL03Z4/release/libksdk_platform.a(fsl_i2c_master_driver.c.obj)
 .text.I2C_DRV_SendAddress.isra.0
                0x0000000000004948       0xe8 ../../../../lib/ksdk_platform_lib/armgcc/KL03Z4/release/libksdk_platform.a(fsl_i2c_master_driver.c.obj)
 .text.I2C_DRV_MasterInit
                0x0000000000004a30       0x78 ../../../../lib/ksdk_platform_lib/armgcc/KL03Z4/release/libksdk_platform.a(fsl_i2c_master_driver.c.obj)
                0x0000000000004a30                I2C_DRV_MasterInit
 .text.I2C_DRV_MasterSetBaudRate
                0x0000000000004aa8       0x34 ../../../../lib/ksdk_platform_lib/armgcc/KL03Z4/release/libksdk_platform.a(fsl_i2c_master_driver.c.obj)
                0x0000000000004aa8                I2C_DRV_MasterSetBaudRate
 .text.I2C_DRV_MasterSend
                0x0000000000004adc       0xe0 ../../../../lib/ksdk_platform_lib/armgcc/KL03Z4/release/libksdk_platform.a(fsl_i2c_master_driver.c.obj)
 .text.I2C_DRV_MasterReceive
                0x0000000000004bbc       0xf0 ../../../../lib/ksdk_platform_lib/armgcc/KL03Z4/release/libksdk_platform.a(fsl_i2c_master_driver.c.obj)
 .text.I2C_DRV_MasterSendDataBlocking
                0x0000000000004cac       0x1a ../../../../lib/ksdk_platform_lib/armgcc/KL03Z4/release/libksdk_platform.a(fsl_i2c_master_driver.c.obj)
                0x0000000000004cac                I2C_DRV_MasterSendDataBlocking
 .text.I2C_DRV_MasterReceiveDataBlocking
                0x0000000000004cc6       0x1a ../../../../lib/ksdk_platform_lib/armgcc/KL03Z4/release/libksdk_platform.a(fsl_i2c_master_driver.c.obj)
                0x0000000000004cc6                I2C_DRV_MasterReceiveDataBlocking
 .text.I2C_DRV_MasterIRQHandler
                0x0000000000004ce0       0x9c ../../../../lib/ksdk_platform_lib/armgcc/KL03Z4/release/libksdk_platform.a(fsl_i2c_master_driver.c.obj)
                0x0000000000004ce0                I2C_DRV_MasterIRQHandler
 .text.I2C_HAL_ClearInt
                0x0000000000004d7c        0xe ../../../../lib/ksdk_platform_lib/armgcc/KL03Z4/release/libksdk_platform.a(fsl_i2c_slave_driver.c.obj)
 *fill*         0x0000000000004d8a        0x2 
 .text.I2C_DRV_SlaveIRQHandler
                0x0000000000004d8c      0x250 ../../../../lib/ksdk_platform_lib/armgcc/KL03Z4/release/libksdk_platform.a(fsl_i2c_slave_driver.c.obj)
                0x0000000000004d8c                I2C_DRV_SlaveIRQHandler
 .text.LLWU_HAL_ClearExternalPinWakeupFlag
                0x0000000000004fdc       0x24 ../../../../lib/ksdk_platform_lib/armgcc/KL03Z4/release/libksdk_platform.a(fsl_llwu_hal.c.obj)
                0x0000000000004fdc                LLWU_HAL_ClearExternalPinWakeupFlag
 .text.LPUART_DRV_CompleteSendData
                0x0000000000005000       0x34 ../../../../lib/ksdk_platform_lib/armgcc/KL03Z4/release/libksdk_platform.a(fsl_lpuart_driver.c.obj)
 .text.LPUART_DRV_CompleteReceiveData
                0x0000000000005034       0x40 ../../../../lib/ksdk_platform_lib/armgcc/KL03Z4/release/libksdk_platform.a(fsl_lpuart_driver.c.obj)
 .text.LPUART_DRV_IrqHandler
                0x0000000000005074       0xbc ../../../../lib/ksdk_platform_lib/armgcc/KL03Z4/release/libksdk_platform.a(fsl_lpuart_driver.c.obj)
                0x0000000000005074                LPUART_DRV_IrqHandler
 .text.CLOCK_HAL_GetLircClk
                0x0000000000005130       0x34 ../../../../lib/ksdk_platform_lib/armgcc/KL03Z4/release/libksdk_platform.a(fsl_mcglite_hal.c.obj)
                0x0000000000005130                CLOCK_HAL_GetLircClk
 .text.CLOCK_HAL_GetOutClk
                0x0000000000005164       0x48 ../../../../lib/ksdk_platform_lib/armgcc/KL03Z4/release/libksdk_platform.a(fsl_mcglite_hal.c.obj)
                0x0000000000005164                CLOCK_HAL_GetOutClk
 .text.CLOCK_HAL_GetMode
                0x00000000000051ac       0x38 ../../../../lib/ksdk_platform_lib/armgcc/KL03Z4/release/libksdk_platform.a(fsl_mcglite_hal_modes.c.obj)
                0x00000000000051ac                CLOCK_HAL_GetMode
 .text.CLOCK_HAL_SetHircMode
                0x00000000000051e4       0x38 ../../../../lib/ksdk_platform_lib/armgcc/KL03Z4/release/libksdk_platform.a(fsl_mcglite_hal_modes.c.obj)
                0x00000000000051e4                CLOCK_HAL_SetHircMode
 .text.CLOCK_HAL_SetLircMode
                0x000000000000521c       0x84 ../../../../lib/ksdk_platform_lib/armgcc/KL03Z4/release/libksdk_platform.a(fsl_mcglite_hal_modes.c.obj)
                0x000000000000521c                CLOCK_HAL_SetLircMode
 .text.CLOCK_HAL_SetExtMode
                0x00000000000052a0       0x38 ../../../../lib/ksdk_platform_lib/armgcc/KL03Z4/release/libksdk_platform.a(fsl_mcglite_hal_modes.c.obj)
                0x00000000000052a0                CLOCK_HAL_SetExtMode
 .text.OSC_HAL_SetExternalRefClkCmd
                0x00000000000052d8        0xe ../../../../lib/ksdk_platform_lib/armgcc/KL03Z4/release/libksdk_platform.a(fsl_osc_hal.c.obj)
                0x00000000000052d8                OSC_HAL_SetExternalRefClkCmd
 .text.OSC_HAL_SetExternalRefClkInStopModeCmd
                0x00000000000052e6        0xe ../../../../lib/ksdk_platform_lib/armgcc/KL03Z4/release/libksdk_platform.a(fsl_osc_hal.c.obj)
                0x00000000000052e6                OSC_HAL_SetExternalRefClkInStopModeCmd
 .text.RTC_HAL_ConvertSecsToDatetime
                0x00000000000052f4       0x9c ../../../../lib/ksdk_platform_lib/armgcc/KL03Z4/release/libksdk_platform.a(fsl_rtc_hal.c.obj)
                0x00000000000052f4                RTC_HAL_ConvertSecsToDatetime
 .text.RTC_HAL_IsDatetimeCorrectFormat
                0x0000000000005390       0x54 ../../../../lib/ksdk_platform_lib/armgcc/KL03Z4/release/libksdk_platform.a(fsl_rtc_hal.c.obj)
                0x0000000000005390                RTC_HAL_IsDatetimeCorrectFormat
 .text.RTC_HAL_ConvertDatetimeToSecs
                0x00000000000053e4       0x5c ../../../../lib/ksdk_platform_lib/armgcc/KL03Z4/release/libksdk_platform.a(fsl_rtc_hal.c.obj)
                0x00000000000053e4                RTC_HAL_ConvertDatetimeToSecs
 .text.RTC_HAL_Enable
                0x0000000000005440       0x28 ../../../../lib/ksdk_platform_lib/armgcc/KL03Z4/release/libksdk_platform.a(fsl_rtc_hal.c.obj)
                0x0000000000005440                RTC_HAL_Enable
 .text.RTC_HAL_Init
                0x0000000000005468       0x38 ../../../../lib/ksdk_platform_lib/armgcc/KL03Z4/release/libksdk_platform.a(fsl_rtc_hal.c.obj)
                0x0000000000005468                RTC_HAL_Init
 .text.RTC_HAL_SetDatetimeInsecs
                0x00000000000054a0       0x18 ../../../../lib/ksdk_platform_lib/armgcc/KL03Z4/release/libksdk_platform.a(fsl_rtc_hal.c.obj)
                0x00000000000054a0                RTC_HAL_SetDatetimeInsecs
 .text.RTC_HAL_GetDatetimeInSecs
                0x00000000000054b8        0x6 ../../../../lib/ksdk_platform_lib/armgcc/KL03Z4/release/libksdk_platform.a(fsl_rtc_hal.c.obj)
                0x00000000000054b8                RTC_HAL_GetDatetimeInSecs
 *fill*         0x00000000000054be        0x2 
 .text.RTC_DRV_Init
                0x00000000000054c0       0x58 ../../../../lib/ksdk_platform_lib/armgcc/KL03Z4/release/libksdk_platform.a(fsl_rtc_driver.c.obj)
                0x00000000000054c0                RTC_DRV_Init
 .text.RTC_DRV_SetDatetime
                0x0000000000005518       0x50 ../../../../lib/ksdk_platform_lib/armgcc/KL03Z4/release/libksdk_platform.a(fsl_rtc_driver.c.obj)
                0x0000000000005518                RTC_DRV_SetDatetime
 .text.RTC_DRV_GetDatetime
                0x0000000000005568       0x58 ../../../../lib/ksdk_platform_lib/armgcc/KL03Z4/release/libksdk_platform.a(fsl_rtc_driver.c.obj)
                0x0000000000005568                RTC_DRV_GetDatetime
 .text.RTC_DRV_SetAlarm
                0x00000000000055c0       0x6c ../../../../lib/ksdk_platform_lib/armgcc/KL03Z4/release/libksdk_platform.a(fsl_rtc_driver.c.obj)
                0x00000000000055c0                RTC_DRV_SetAlarm
 .text.RTC_DRV_SetAlarmIntCmd
                0x000000000000562c       0x18 ../../../../lib/ksdk_platform_lib/armgcc/KL03Z4/release/libksdk_platform.a(fsl_rtc_driver.c.obj)
                0x000000000000562c                RTC_DRV_SetAlarmIntCmd
 .text.RTC_DRV_IsAlarmPending
                0x0000000000005644       0x1c ../../../../lib/ksdk_platform_lib/armgcc/KL03Z4/release/libksdk_platform.a(fsl_rtc_driver.c.obj)
                0x0000000000005644                RTC_DRV_IsAlarmPending
 .text.CLOCK_HAL_SetOutDiv
                0x0000000000005660       0x1c ../../../../lib/ksdk_platform_lib/armgcc/KL03Z4/release/libksdk_platform.a(fsl_sim_hal_MKL03Z4.c.obj)
                0x0000000000005660                CLOCK_HAL_SetOutDiv
 .text.SPI_DRV_IRQHandler
                0x000000000000567c       0x28 ../../../../lib/ksdk_platform_lib/armgcc/KL03Z4/release/libksdk_platform.a(fsl_spi_shared_function.c.obj)
                0x000000000000567c                SPI_DRV_IRQHandler
 .text.SPI_DRV_MasterCompleteTransfer
                0x00000000000056a4       0x3c ../../../../lib/ksdk_platform_lib/armgcc/KL03Z4/release/libksdk_platform.a(fsl_spi_master_driver.c.obj)
 .text.SPI_DRV_MasterIRQHandler
                0x00000000000056e0       0x84 ../../../../lib/ksdk_platform_lib/armgcc/KL03Z4/release/libksdk_platform.a(fsl_spi_master_driver.c.obj)
                0x00000000000056e0                SPI_DRV_MasterIRQHandler
 .text.SPI_DRV_SlaveCompleteTransfer
                0x0000000000005764       0x4c ../../../../lib/ksdk_platform_lib/armgcc/KL03Z4/release/libksdk_platform.a(fsl_spi_slave_driver.c.obj)
 .text.SPI_DRV_SlaveIRQHandler
                0x00000000000057b0       0xa0 ../../../../lib/ksdk_platform_lib/armgcc/KL03Z4/release/libksdk_platform.a(fsl_spi_slave_driver.c.obj)
                0x00000000000057b0                SPI_DRV_SlaveIRQHandler
 .text.SMC_HAL_GetProtectionMode
                0x0000000000005850       0x20 ../../../../lib/ksdk_platform_lib/armgcc/KL03Z4/release/libksdk_platform.a(fsl_smc_hal.c.obj)
                0x0000000000005850                SMC_HAL_GetProtectionMode
 .text.SMC_HAL_SetRunMode
                0x0000000000005870       0x14 ../../../../lib/ksdk_platform_lib/armgcc/KL03Z4/release/libksdk_platform.a(fsl_smc_hal.c.obj)
                0x0000000000005870                SMC_HAL_SetRunMode
 .text.SMC_HAL_SetPorMode
                0x0000000000005884       0x10 ../../../../lib/ksdk_platform_lib/armgcc/KL03Z4/release/libksdk_platform.a(fsl_smc_hal.c.obj)
                0x0000000000005884                SMC_HAL_SetPorMode
 .text.SMC_HAL_SetPstopMode
                0x0000000000005894       0x14 ../../../../lib/ksdk_platform_lib/armgcc/KL03Z4/release/libksdk_platform.a(fsl_smc_hal.c.obj)
                0x0000000000005894                SMC_HAL_SetPstopMode
 .text.SMC_HAL_SetLpoMode
                0x00000000000058a8       0x10 ../../../../lib/ksdk_platform_lib/armgcc/KL03Z4/release/libksdk_platform.a(fsl_smc_hal.c.obj)
                0x00000000000058a8                SMC_HAL_SetLpoMode
 .text.SMC_HAL_SetMode
                0x00000000000058b8       0xf0 ../../../../lib/ksdk_platform_lib/armgcc/KL03Z4/release/libksdk_platform.a(fsl_smc_hal.c.obj)
                0x00000000000058b8                SMC_HAL_SetMode
 .text.SMC_HAL_GetStat
                0x00000000000059a8       0x10 ../../../../lib/ksdk_platform_lib/armgcc/KL03Z4/release/libksdk_platform.a(fsl_smc_hal.c.obj)
                0x00000000000059a8                SMC_HAL_GetStat
 .text.GPIO_HAL_SetPinDir
                0x00000000000059b8       0x1e ../../../../lib/ksdk_platform_lib/armgcc/KL03Z4/release/libksdk_platform.a(fsl_gpio_hal.c.obj)
                0x00000000000059b8                GPIO_HAL_SetPinDir
 .text.GPIO_HAL_WritePinOutput
                0x00000000000059d6       0x10 ../../../../lib/ksdk_platform_lib/armgcc/KL03Z4/release/libksdk_platform.a(fsl_gpio_hal.c.obj)
                0x00000000000059d6                GPIO_HAL_WritePinOutput
 .text.I2C_HAL_Init
                0x00000000000059e6       0x1c ../../../../lib/ksdk_platform_lib/armgcc/KL03Z4/release/libksdk_platform.a(fsl_i2c_hal.c.obj)
                0x00000000000059e6                I2C_HAL_Init
 *fill*         0x0000000000005a02        0x2 
 .text.I2C_HAL_SetBaudRate
                0x0000000000005a04       0x8c ../../../../lib/ksdk_platform_lib/armgcc/KL03Z4/release/libksdk_platform.a(fsl_i2c_hal.c.obj)
                0x0000000000005a04                I2C_HAL_SetBaudRate
 .text.I2C_HAL_SendStart
                0x0000000000005a90       0x24 ../../../../lib/ksdk_platform_lib/armgcc/KL03Z4/release/libksdk_platform.a(fsl_i2c_hal.c.obj)
                0x0000000000005a90                I2C_HAL_SendStart
 .text.I2C_HAL_SendStop
                0x0000000000005ab4       0x42 ../../../../lib/ksdk_platform_lib/armgcc/KL03Z4/release/libksdk_platform.a(fsl_i2c_hal.c.obj)
                0x0000000000005ab4                I2C_HAL_SendStop
 .text.LPUART_HAL_SetIntMode
                0x0000000000005af6       0x50 ../../../../lib/ksdk_platform_lib/armgcc/KL03Z4/release/libksdk_platform.a(fsl_lpuart_hal.c.obj)
                0x0000000000005af6                LPUART_HAL_SetIntMode
 .text.LPUART_HAL_GetIntMode
                0x0000000000005b46       0x32 ../../../../lib/ksdk_platform_lib/armgcc/KL03Z4/release/libksdk_platform.a(fsl_lpuart_hal.c.obj)
                0x0000000000005b46                LPUART_HAL_GetIntMode
 .text.LPUART_HAL_GetStatusFlag
                0x0000000000005b78        0x8 ../../../../lib/ksdk_platform_lib/armgcc/KL03Z4/release/libksdk_platform.a(fsl_lpuart_hal.c.obj)
                0x0000000000005b78                LPUART_HAL_GetStatusFlag
 .text.LPUART_HAL_ClearStatusFlag
                0x0000000000005b80       0xac ../../../../lib/ksdk_platform_lib/armgcc/KL03Z4/release/libksdk_platform.a(fsl_lpuart_hal.c.obj)
                0x0000000000005b80                LPUART_HAL_ClearStatusFlag
 *(.rodata)
 .rodata        0x0000000000005c2c        0x4 /usr/lib/gcc/arm-none-eabi/9.2.1/../../../arm-none-eabi/lib/thumb/v6-m/nofp/libc_nano.a(lib_a-impure.o)
                0x0000000000005c2c                _global_impure_ptr
 .rodata        0x0000000000005c30       0x40 /usr/lib/gcc/arm-none-eabi/9.2.1/thumb/v6-m/nofp/libgcc.a(divdf3.o)
 .rodata        0x0000000000005c70       0x40 /usr/lib/gcc/arm-none-eabi/9.2.1/thumb/v6-m/nofp/libgcc.a(muldf3.o)
 *(.rodata*)
 .rodata.warpScaleSupplyVoltage.str1.1
                0x0000000000005cb0       0x65 CMakeFiles/Warp.dir/home/students/rr632/Warp-firmware/build/ksdk1.1/work/demos/Warp/src/script.c.obj
 .rodata.main.str1.1
                0x0000000000005d15       0xd5 CMakeFiles/Warp.dir/home/students/rr632/Warp-firmware/build/ksdk1.1/work/demos/Warp/src/script.c.obj
                                         0xdc (size before relaxing)
 .rodata.gWarpEfmt
                0x0000000000005dea       0x26 CMakeFiles/Warp.dir/home/students/rr632/Warp-firmware/build/ksdk1.1/work/demos/Warp/src/errstrsEN.c.obj
                0x0000000000005dea                gWarpEfmt
 .rodata.readSensorRegisterMMA8451Q.str1.1
                0x0000000000005e10        0x2 CMakeFiles/Warp.dir/home/students/rr632/Warp-firmware/build/ksdk1.1/work/demos/Warp/src/devMMA8451Q.c.obj
 .rodata.falldetectorMMA8451Q.str1.1
                0x0000000000005e12        0xb CMakeFiles/Warp.dir/home/students/rr632/Warp-firmware/build/ksdk1.1/work/demos/Warp/src/devMMA8451Q.c.obj
 .rodata._DoInit.str1.1
                0x0000000000005e1d       0x14 CMakeFiles/Warp.dir/home/students/rr632/Warp-firmware/build/ksdk1.1/work/demos/Warp/src/SEGGER_RTT.c.obj
 .rodata._aV2C.4390
                0x0000000000005e31       0x10 CMakeFiles/Warp.dir/home/students/rr632/Warp-firmware/build/ksdk1.1/work/demos/Warp/src/SEGGER_RTT_printf.c.obj
 .rodata.portGateTable
                0x0000000000005e41        0x2 ../../../../lib/ksdk_platform_lib/armgcc/KL03Z4/release/libksdk_platform.a(fsl_clock_MKL03Z4.c.obj)
 *fill*         0x0000000000005e43        0x1 
 .rodata.g_i2cBaseAddr
                0x0000000000005e44        0x4 ../../../../lib/ksdk_platform_lib/armgcc/KL03Z4/release/libksdk_platform.a(fsl_i2c_common.c.obj)
                0x0000000000005e44                g_i2cBaseAddr
 .rodata.g_i2cIrqId
                0x0000000000005e48        0x1 ../../../../lib/ksdk_platform_lib/armgcc/KL03Z4/release/libksdk_platform.a(fsl_i2c_common.c.obj)
                0x0000000000005e48                g_i2cIrqId
 *fill*         0x0000000000005e49        0x3 
 .rodata.g_lpuartBaseAddr
                0x0000000000005e4c        0x4 ../../../../lib/ksdk_platform_lib/armgcc/KL03Z4/release/libksdk_platform.a(fsl_lpuart_common.c.obj)
                0x0000000000005e4c                g_lpuartBaseAddr
 .rodata.LY     0x0000000000005e50        0xd ../../../../lib/ksdk_platform_lib/armgcc/KL03Z4/release/libksdk_platform.a(fsl_rtc_hal.c.obj)
 *fill*         0x0000000000005e5d        0x1 
 .rodata.MONTH_DAYS
                0x0000000000005e5e       0x1a ../../../../lib/ksdk_platform_lib/armgcc/KL03Z4/release/libksdk_platform.a(fsl_rtc_hal.c.obj)
 .rodata.ULY    0x0000000000005e78        0xd ../../../../lib/ksdk_platform_lib/armgcc/KL03Z4/release/libksdk_platform.a(fsl_rtc_hal.c.obj)
 *fill*         0x0000000000005e85        0x3 
 .rodata.g_rtcBaseAddr
                0x0000000000005e88        0x4 ../../../../lib/ksdk_platform_lib/armgcc/KL03Z4/release/libksdk_platform.a(fsl_rtc_common.c.obj)
                0x0000000000005e88                g_rtcBaseAddr
 .rodata.g_rtcIrqId
                0x0000000000005e8c        0x1 ../../../../lib/ksdk_platform_lib/armgcc/KL03Z4/release/libksdk_platform.a(fsl_rtc_common.c.obj)
                0x0000000000005e8c                g_rtcIrqId
 .rodata.g_rtcSecondsIrqId
                0x0000000000005e8d        0x1 ../../../../lib/ksdk_platform_lib/armgcc/KL03Z4/release/libksdk_platform.a(fsl_rtc_common.c.obj)
                0x0000000000005e8d                g_rtcSecondsIrqId
 *fill*         0x0000000000005e8e        0x2 
 .rodata.g_spiBaseAddr
                0x0000000000005e90        0x4 ../../../../lib/ksdk_platform_lib/armgcc/KL03Z4/release/libksdk_platform.a(fsl_spi_common.c.obj)
                0x0000000000005e90                g_spiBaseAddr
 .rodata.g_oscBaseAddr
                0x0000000000005e94        0x4 ../../../../lib/ksdk_platform_lib/armgcc/KL03Z4/release/libksdk_platform.a(fsl_clock_manager_common.c.obj)
                0x0000000000005e94                g_oscBaseAddr
 .rodata.g_gpioBaseAddr
                0x0000000000005e98        0x8 ../../../../lib/ksdk_platform_lib/armgcc/KL03Z4/release/libksdk_platform.a(fsl_gpio_common.c.obj)
                0x0000000000005e98                g_gpioBaseAddr
 .rodata.g_portBaseAddr
                0x0000000000005ea0        0x8 ../../../../lib/ksdk_platform_lib/armgcc/KL03Z4/release/libksdk_platform.a(fsl_gpio_common.c.obj)
                0x0000000000005ea0                g_portBaseAddr
 .rodata.g_portIrqId
                0x0000000000005ea8        0x2 ../../../../lib/ksdk_platform_lib/armgcc/KL03Z4/release/libksdk_platform.a(fsl_gpio_common.c.obj)
                0x0000000000005ea8                g_portIrqId
 .rodata.kI2CDividerTable
                0x0000000000005eaa       0xc8 ../../../../lib/ksdk_platform_lib/armgcc/KL03Z4/release/libksdk_platform.a(fsl_i2c_hal.c.obj)
                0x0000000000005eaa                kI2CDividerTable
 *(.glue_7)
 .glue_7        0x0000000000005f72        0x0 linker stubs
 *(.glue_7t)
 .glue_7t       0x0000000000005f72        0x0 linker stubs
 *(.eh_frame)
 *fill*         0x0000000000005f72        0x2 
 .eh_frame      0x0000000000005f74        0x0 /usr/lib/gcc/arm-none-eabi/9.2.1/thumb/v6-m/nofp/crtbegin.o
 *(.init)
 .init          0x0000000000005f74        0x4 /usr/lib/gcc/arm-none-eabi/9.2.1/thumb/v6-m/nofp/crti.o
                0x0000000000005f74                _init
 .init          0x0000000000005f78        0x8 /usr/lib/gcc/arm-none-eabi/9.2.1/thumb/v6-m/nofp/crtn.o
 *(.fini)
 .fini          0x0000000000005f80        0x4 /usr/lib/gcc/arm-none-eabi/9.2.1/thumb/v6-m/nofp/crti.o
                0x0000000000005f80                _fini
 .fini          0x0000000000005f84        0x8 /usr/lib/gcc/arm-none-eabi/9.2.1/thumb/v6-m/nofp/crtn.o
                0x0000000000005f8c                . = ALIGN (0x4)

.vfp11_veneer   0x0000000000005f8c        0x0
 .vfp11_veneer  0x0000000000005f8c        0x0 linker stubs

.v4_bx          0x0000000000005f8c        0x0
 .v4_bx         0x0000000000005f8c        0x0 linker stubs

.iplt           0x0000000000005f8c        0x0
 .iplt          0x0000000000005f8c        0x0 /usr/lib/gcc/arm-none-eabi/9.2.1/thumb/v6-m/nofp/crtbegin.o

.ARM.extab
 *(.ARM.extab* .gnu.linkonce.armextab.*)

.ARM            0x0000000000005f8c        0x8
                0x0000000000005f8c                __exidx_start = .
 *(.ARM.exidx*)
 .ARM.exidx     0x0000000000005f8c        0x8 /usr/lib/gcc/arm-none-eabi/9.2.1/../../../arm-none-eabi/lib/thumb/v6-m/nofp/crt0.o
                                         0x10 (size before relaxing)
                0x0000000000005f94                __exidx_end = .

.rel.dyn        0x0000000000005f94        0x0
 .rel.iplt      0x0000000000005f94        0x0 /usr/lib/gcc/arm-none-eabi/9.2.1/thumb/v6-m/nofp/crtbegin.o

.ctors          0x0000000000005f94        0x0
                0x0000000000005f94                __CTOR_LIST__ = .
 *crtbegin.o(.ctors)
 *crtbegin?.o(.ctors)
 *(EXCLUDE_FILE(*crtend.o *crtend?.o) .ctors)
 *(SORT_BY_NAME(.ctors.*))
 *(.ctors)
                0x0000000000005f94                __CTOR_END__ = .

.dtors          0x0000000000005f94        0x0
                0x0000000000005f94                __DTOR_LIST__ = .
 *crtbegin.o(.dtors)
 *crtbegin?.o(.dtors)
 *(EXCLUDE_FILE(*crtend.o *crtend?.o) .dtors)
 *(SORT_BY_NAME(.dtors.*))
 *(.dtors)
                0x0000000000005f94                __DTOR_END__ = .

.preinit_array  0x0000000000005f94        0x0
                0x0000000000005f94                PROVIDE (__preinit_array_start = .)
 *(.preinit_array*)
                0x0000000000005f94                PROVIDE (__preinit_array_end = .)

.init_array     0x0000000000005f94        0x4
                0x0000000000005f94                PROVIDE (__init_array_start = .)
 *(SORT_BY_NAME(.init_array.*))
 *(.init_array*)
 .init_array    0x0000000000005f94        0x4 /usr/lib/gcc/arm-none-eabi/9.2.1/thumb/v6-m/nofp/crtbegin.o
                0x0000000000005f98                PROVIDE (__init_array_end = .)

.fini_array     0x0000000000005f98        0x4
                0x0000000000005f98                PROVIDE (__fini_array_start = .)
 *(SORT_BY_NAME(.fini_array.*))
 *(.fini_array*)
 .fini_array    0x0000000000005f98        0x4 /usr/lib/gcc/arm-none-eabi/9.2.1/thumb/v6-m/nofp/crtbegin.o
                0x0000000000005f9c                PROVIDE (__fini_array_end = .)
                0x0000000000005f9c                __etext = .
                0x0000000000005f9c                __DATA_ROM = .

.mtb            0x000000001ffffe00        0x0
                0x000000001ffffe00                . = ALIGN (0x8)
                0x000000001ffffe00                _mtb_start = .
 *(.mtb_buf)
                0x000000001ffffe00                . = ALIGN (0x8)
                0x000000001ffffe00                _mtb_end = .

.interrupts_ram
                0x000000001ffffe00        0x0
                0x000000001ffffe00                . = ALIGN (0x4)
                0x000000001ffffe00                __VECTOR_RAM__ = .
                0x000000001ffffe00                __interrupts_ram_start__ = .
 *(.m_interrupts_ram)
                0x000000001ffffe00                . = (. + M_VECTOR_RAM_SIZE)
                0x000000001ffffe00                . = ALIGN (0x4)
                0x000000001ffffe00                __interrupts_ram_end__ = .
                0x0000000000000000                __VECTOR_RAM = DEFINED (__ram_vector_table__)?__VECTOR_RAM__:ORIGIN (m_interrupts)
                0x0000000000000000                __RAM_VECTOR_TABLE_SIZE_BYTES = DEFINED (__ram_vector_table__)?(__interrupts_ram_end__ - __interrupts_ram_start__):0x0

.data           0x000000001ffffe00      0x138 load address 0x0000000000005f9c
                0x000000001ffffe00                . = ALIGN (0x4)
                0x000000001ffffe00                __DATA_RAM = .
                0x000000001ffffe00                __data_start__ = .
 *(.data)
 .data          0x000000001ffffe00        0x1 /usr/lib/gcc/arm-none-eabi/9.2.1/../../../arm-none-eabi/lib/thumb/v6-m/nofp/libm.a(lib_a-s_lib_ver.o)
                0x000000001ffffe00                __fdlib_version
 *fill*         0x000000001ffffe01        0x3 
 .data          0x000000001ffffe04       0x64 /usr/lib/gcc/arm-none-eabi/9.2.1/../../../arm-none-eabi/lib/thumb/v6-m/nofp/libc_nano.a(lib_a-impure.o)
                0x000000001ffffe04                _impure_ptr
 *(.data*)
 .data.clockCallbackTable
                0x000000001ffffe68        0x4 CMakeFiles/Warp.dir/home/students/rr632/Warp-firmware/build/ksdk1.1/work/demos/Warp/src/script.c.obj
 .data.clockManagerCallbackUserlevelStructure
                0x000000001ffffe6c        0xc CMakeFiles/Warp.dir/home/students/rr632/Warp-firmware/build/ksdk1.1/work/demos/Warp/src/script.c.obj
                0x000000001ffffe6c                clockManagerCallbackUserlevelStructure
 .data.gWarpCurrentSupplyVoltage
                0x000000001ffffe78        0x2 CMakeFiles/Warp.dir/home/students/rr632/Warp-firmware/build/ksdk1.1/work/demos/Warp/src/script.c.obj
                0x000000001ffffe78                gWarpCurrentSupplyVoltage
 *fill*         0x000000001ffffe7a        0x2 
 .data.gWarpI2cBaudRateKbps
                0x000000001ffffe7c        0x4 CMakeFiles/Warp.dir/home/students/rr632/Warp-firmware/build/ksdk1.1/work/demos/Warp/src/script.c.obj
                0x000000001ffffe7c                gWarpI2cBaudRateKbps
 .data.gWarpI2cTimeoutMilliseconds
                0x000000001ffffe80        0x4 CMakeFiles/Warp.dir/home/students/rr632/Warp-firmware/build/ksdk1.1/work/demos/Warp/src/script.c.obj
                0x000000001ffffe80                gWarpI2cTimeoutMilliseconds
 .data.gWarpSupplySettlingDelayMilliseconds
                0x000000001ffffe84        0x4 CMakeFiles/Warp.dir/home/students/rr632/Warp-firmware/build/ksdk1.1/work/demos/Warp/src/script.c.obj
                0x000000001ffffe84                gWarpSupplySettlingDelayMilliseconds
 .data.inputPins
                0x000000001ffffe88        0x8 CMakeFiles/Warp.dir/home/students/rr632/Warp-firmware/build/ksdk1.1/work/boards/Warp/gpio_pins.c.obj
                0x000000001ffffe88                inputPins
 .data.outputPins
                0x000000001ffffe90       0x90 CMakeFiles/Warp.dir/home/students/rr632/Warp-firmware/build/ksdk1.1/work/boards/Warp/gpio_pins.c.obj
                0x000000001ffffe90                outputPins
 .data.g_defaultClockConfigurations
                0x000000001fffff20       0x18 ../../../../lib/ksdk_platform_lib/armgcc/KL03Z4/release/libksdk_platform.a(fsl_clock_MKL03Z4.c.obj)
                0x000000001fffff20                g_defaultClockConfigurations
 *(.jcr*)
                0x000000001fffff38                . = ALIGN (0x4)
                0x000000001fffff38                __data_end__ = .
                0x00000000000060d4                __DATA_END = (__DATA_ROM + (__data_end__ - __data_start__))

.tm_clone_table
                0x000000001fffff38        0x0 load address 0x00000000000060d4
 .tm_clone_table
                0x000000001fffff38        0x0 /usr/lib/gcc/arm-none-eabi/9.2.1/thumb/v6-m/nofp/crtbegin.o
 .tm_clone_table
                0x000000001fffff38        0x0 /usr/lib/gcc/arm-none-eabi/9.2.1/thumb/v6-m/nofp/crtend.o

.igot.plt       0x000000001fffff38        0x0 load address 0x00000000000060d4
 .igot.plt      0x000000001fffff38        0x0 /usr/lib/gcc/arm-none-eabi/9.2.1/thumb/v6-m/nofp/crtbegin.o

.bss            0x000000001fffff38      0x2ac load address 0x00000000000060d4
                0x000000001fffff38                . = ALIGN (0x4)
                0x000000001fffff38                __START_BSS = .
                0x000000001fffff38                __bss_start__ = .
 *(.bss)
 .bss           0x000000001fffff38       0x1c /usr/lib/gcc/arm-none-eabi/9.2.1/thumb/v6-m/nofp/crtbegin.o
 .bss           0x000000001fffff54        0x8 /usr/lib/gcc/arm-none-eabi/9.2.1/../../../arm-none-eabi/lib/thumb/v6-m/nofp/libc_nano.a(lib_a-nano-mallocr.o)
                0x000000001fffff54                __malloc_free_list
                0x000000001fffff58                __malloc_sbrk_start
 .bss           0x000000001fffff5c       0x8c /usr/lib/gcc/arm-none-eabi/9.2.1/../../../arm-none-eabi/lib/thumb/v6-m/nofp/libc_nano.a(lib_a-__atexit.o)
 .bss           0x000000001fffffe8        0x4 /usr/lib/gcc/arm-none-eabi/9.2.1/../../../arm-none-eabi/lib/thumb/v6-m/nofp/libc_nano.a(lib_a-__call_atexit.o)
                0x000000001fffffe8                _global_atexit
 *(.bss*)
 .bss.heap_end.5296
                0x000000001fffffec        0x4 CMakeFiles/Warp.dir/home/students/rr632/Warp-firmware/build/ksdk1.1/work/platform/utilities/src/fsl_misc_utilities.c.obj
 .bss.deviceMMA8451QState
                0x000000001ffffff0        0x8 CMakeFiles/Warp.dir/home/students/rr632/Warp-firmware/build/ksdk1.1/work/demos/Warp/src/script.c.obj
                0x000000001ffffff0                deviceMMA8451QState
 .bss.gWarpBooted
                0x000000001ffffff8        0x1 CMakeFiles/Warp.dir/home/students/rr632/Warp-firmware/build/ksdk1.1/work/demos/Warp/src/script.c.obj
                0x000000001ffffff8                gWarpBooted
 .bss.gWarpPrintBuffer
                0x000000001ffffff9       0x40 CMakeFiles/Warp.dir/home/students/rr632/Warp-firmware/build/ksdk1.1/work/demos/Warp/src/script.c.obj
                0x000000001ffffff9                gWarpPrintBuffer
 *fill*         0x0000000020000039        0x3 
 .bss.gWarpSleeptimeSeconds
                0x000000002000003c        0x4 CMakeFiles/Warp.dir/home/students/rr632/Warp-firmware/build/ksdk1.1/work/demos/Warp/src/script.c.obj
                0x000000002000003c                gWarpSleeptimeSeconds
 .bss.i2cMasterState
                0x0000000020000040       0x24 CMakeFiles/Warp.dir/home/students/rr632/Warp-firmware/build/ksdk1.1/work/demos/Warp/src/script.c.obj
                0x0000000020000040                i2cMasterState
 .bss._SEGGER_RTT
                0x0000000020000064       0x78 CMakeFiles/Warp.dir/home/students/rr632/Warp-firmware/build/ksdk1.1/work/demos/Warp/src/SEGGER_RTT.c.obj
                0x0000000020000064                _SEGGER_RTT
 .bss._acDownBuffer
                0x00000000200000dc        0x4 CMakeFiles/Warp.dir/home/students/rr632/Warp-firmware/build/ksdk1.1/work/demos/Warp/src/SEGGER_RTT.c.obj
 .bss._acUpBuffer
                0x00000000200000e0       0x64 CMakeFiles/Warp.dir/home/students/rr632/Warp-firmware/build/ksdk1.1/work/demos/Warp/src/SEGGER_RTT.c.obj
 .bss.g_freeTaskControlBlock
                0x0000000020000144        0x4 ../../../../lib/ksdk_platform_lib/armgcc/KL03Z4/release/libksdk_platform.a(fsl_os_abstraction_bm.c.obj)
 .bss.g_taskControlBlockPool
                0x0000000020000148       0x50 ../../../../lib/ksdk_platform_lib/armgcc/KL03Z4/release/libksdk_platform.a(fsl_os_abstraction_bm.c.obj)
 .bss.g_taskListHead
                0x0000000020000198       0x10 ../../../../lib/ksdk_platform_lib/armgcc/KL03Z4/release/libksdk_platform.a(fsl_os_abstraction_bm.c.obj)
 .bss.g_clockState
                0x00000000200001a8       0x10 ../../../../lib/ksdk_platform_lib/armgcc/KL03Z4/release/libksdk_platform.a(fsl_clock_manager.c.obj)
 .bss.g_interruptDisableCount
                0x00000000200001b8        0x4 ../../../../lib/ksdk_platform_lib/armgcc/KL03Z4/release/libksdk_platform.a(fsl_interrupt_manager.c.obj)
                0x00000000200001b8                g_interruptDisableCount
 .bss.gPowerManagerState
                0x00000000200001bc       0x10 ../../../../lib/ksdk_platform_lib/armgcc/KL03Z4/release/libksdk_platform.a(fsl_power_manager.c.obj)
 .bss.g_i2cStatePtr
                0x00000000200001cc        0x4 ../../../../lib/ksdk_platform_lib/armgcc/KL03Z4/release/libksdk_platform.a(fsl_i2c_common.c.obj)
                0x00000000200001cc                g_i2cStatePtr
 .bss.g_lpuartStatePtr
                0x00000000200001d0        0x4 ../../../../lib/ksdk_platform_lib/armgcc/KL03Z4/release/libksdk_platform.a(fsl_lpuart_common.c.obj)
                0x00000000200001d0                g_lpuartStatePtr
 .bss.g_xtal0ClkFreq
                0x00000000200001d4        0x4 ../../../../lib/ksdk_platform_lib/armgcc/KL03Z4/release/libksdk_platform.a(fsl_mcglite_hal.c.obj)
                0x00000000200001d4                g_xtal0ClkFreq
 .bss.g_xtalRtcClkFreq
                0x00000000200001d8        0x4 ../../../../lib/ksdk_platform_lib/armgcc/KL03Z4/release/libksdk_platform.a(fsl_mcglite_hal.c.obj)
                0x00000000200001d8                g_xtalRtcClkFreq
 .bss.g_spiStatePtr
                0x00000000200001dc        0x4 ../../../../lib/ksdk_platform_lib/armgcc/KL03Z4/release/libksdk_platform.a(fsl_spi_shared_function.c.obj)
                0x00000000200001dc                g_spiStatePtr
 *(COMMON)
 COMMON         0x00000000200001e0        0x4 /usr/lib/gcc/arm-none-eabi/9.2.1/../../../arm-none-eabi/lib/thumb/v6-m/nofp/libc_nano.a(lib_a-reent.o)
                0x00000000200001e0                errno
                0x00000000200001e4                . = ALIGN (0x4)
                0x00000000200001e4                __bss_end__ = .
                0x00000000200001e4                __END_BSS = .

.heap           0x00000000200001e4        0x4 load address 0x0000000000006380
                0x00000000200001e8                . = ALIGN (0x8)
 *fill*         0x00000000200001e4        0x4 
                0x00000000200001e8                __end__ = .
                0x00000000200001e8                PROVIDE (end = .)
                0x00000000200001e8                __HeapBase = .
                0x00000000200001e8                . = (. + HEAP_SIZE)
                0x00000000200001e8                __HeapLimit = .

.stack          0x00000000200001e8      0x200 load address 0x0000000000006384
                0x00000000200001e8                . = ALIGN (0x8)
                0x00000000200003e8                . = (. + STACK_SIZE)
 *fill*         0x00000000200001e8      0x200 
                0x0000000020000600                __StackTop = (ORIGIN (m_data) + LENGTH (m_data))
                0x0000000020000400                __StackLimit = (__StackTop - STACK_SIZE)
                0x0000000020000600                PROVIDE (__stack = __StackTop)

.ARM.attributes
                0x0000000000000000       0x28
 *(.ARM.attributes)
 .ARM.attributes
                0x0000000000000000       0x1e /usr/lib/gcc/arm-none-eabi/9.2.1/thumb/v6-m/nofp/crti.o
 .ARM.attributes
                0x000000000000001e       0x2c /usr/lib/gcc/arm-none-eabi/9.2.1/thumb/v6-m/nofp/crtbegin.o
 .ARM.attributes
                0x000000000000004a       0x1b /usr/lib/gcc/arm-none-eabi/9.2.1/../../../arm-none-eabi/lib/thumb/v6-m/nofp/crt0.o
 .ARM.attributes
                0x0000000000000065       0x2c CMakeFiles/Warp.dir/home/students/rr632/Warp-firmware/build/ksdk1.1/work/platform/utilities/src/fsl_misc_utilities.c.obj
 .ARM.attributes
                0x0000000000000091       0x1b CMakeFiles/Warp.dir/home/students/rr632/Warp-firmware/build/ksdk1.1/work/platform/startup/MKL03Z4/gcc/startup_MKL03Z4.S.obj
 .ARM.attributes
                0x00000000000000ac       0x2c CMakeFiles/Warp.dir/home/students/rr632/Warp-firmware/build/ksdk1.1/work/demos/Warp/src/script.c.obj
 .ARM.attributes
                0x00000000000000d8       0x32 CMakeFiles/Warp.dir/home/students/rr632/Warp-firmware/build/ksdk1.1/work/demos/Warp/src/errstrsEN.c.obj
 .ARM.attributes
                0x000000000000010a       0x2c CMakeFiles/Warp.dir/home/students/rr632/Warp-firmware/build/ksdk1.1/work/demos/Warp/src/powermodes.c.obj
 .ARM.attributes
                0x0000000000000136       0x2c CMakeFiles/Warp.dir/home/students/rr632/Warp-firmware/build/ksdk1.1/work/demos/Warp/src/devMMA8451Q.c.obj
 .ARM.attributes
                0x0000000000000162       0x2c CMakeFiles/Warp.dir/home/students/rr632/Warp-firmware/build/ksdk1.1/work/demos/Warp/src/SEGGER_RTT.c.obj
 .ARM.attributes
                0x000000000000018e       0x2c CMakeFiles/Warp.dir/home/students/rr632/Warp-firmware/build/ksdk1.1/work/demos/Warp/src/SEGGER_RTT_printf.c.obj
 .ARM.attributes
                0x00000000000001ba       0x2c CMakeFiles/Warp.dir/home/students/rr632/Warp-firmware/build/ksdk1.1/work/platform/drivers/src/i2c/fsl_i2c_irq.c.obj
 .ARM.attributes
                0x00000000000001e6       0x2c CMakeFiles/Warp.dir/home/students/rr632/Warp-firmware/build/ksdk1.1/work/platform/drivers/src/spi/fsl_spi_irq.c.obj
 .ARM.attributes
                0x0000000000000212       0x2c CMakeFiles/Warp.dir/home/students/rr632/Warp-firmware/build/ksdk1.1/work/platform/drivers/src/lpuart/fsl_lpuart_irq.c.obj
 .ARM.attributes
                0x000000000000023e       0x2c CMakeFiles/Warp.dir/home/students/rr632/Warp-firmware/build/ksdk1.1/work/platform/startup/MKL03Z4/system_MKL03Z4.c.obj
 .ARM.attributes
                0x000000000000026a       0x2c CMakeFiles/Warp.dir/home/students/rr632/Warp-firmware/build/ksdk1.1/work/platform/startup/startup.c.obj
 .ARM.attributes
                0x0000000000000296       0x32 CMakeFiles/Warp.dir/home/students/rr632/Warp-firmware/build/ksdk1.1/work/boards/Warp/gpio_pins.c.obj
 .ARM.attributes
                0x00000000000002c8       0x2c ../../../../lib/ksdk_platform_lib/armgcc/KL03Z4/release/libksdk_platform.a(fsl_os_abstraction_bm.c.obj)
 .ARM.attributes
                0x00000000000002f4       0x2c ../../../../lib/ksdk_platform_lib/armgcc/KL03Z4/release/libksdk_platform.a(fsl_clock_manager.c.obj)
 .ARM.attributes
                0x0000000000000320       0x2c ../../../../lib/ksdk_platform_lib/armgcc/KL03Z4/release/libksdk_platform.a(fsl_clock_MKL03Z4.c.obj)
 .ARM.attributes
                0x000000000000034c       0x2c ../../../../lib/ksdk_platform_lib/armgcc/KL03Z4/release/libksdk_platform.a(fsl_interrupt_manager.c.obj)
 .ARM.attributes
                0x0000000000000378       0x2c ../../../../lib/ksdk_platform_lib/armgcc/KL03Z4/release/libksdk_platform.a(fsl_power_manager.c.obj)
 .ARM.attributes
                0x00000000000003a4       0x2c ../../../../lib/ksdk_platform_lib/armgcc/KL03Z4/release/libksdk_platform.a(fsl_gpio_driver.c.obj)
 .ARM.attributes
                0x00000000000003d0       0x2c ../../../../lib/ksdk_platform_lib/armgcc/KL03Z4/release/libksdk_platform.a(fsl_i2c_shared_function.c.obj)
 .ARM.attributes
                0x00000000000003fc       0x32 ../../../../lib/ksdk_platform_lib/armgcc/KL03Z4/release/libksdk_platform.a(fsl_i2c_common.c.obj)
 .ARM.attributes
                0x000000000000042e       0x2c ../../../../lib/ksdk_platform_lib/armgcc/KL03Z4/release/libksdk_platform.a(fsl_i2c_master_driver.c.obj)
 .ARM.attributes
                0x000000000000045a       0x2c ../../../../lib/ksdk_platform_lib/armgcc/KL03Z4/release/libksdk_platform.a(fsl_i2c_slave_driver.c.obj)
 .ARM.attributes
                0x0000000000000486       0x2c ../../../../lib/ksdk_platform_lib/armgcc/KL03Z4/release/libksdk_platform.a(fsl_llwu_hal.c.obj)
 .ARM.attributes
                0x00000000000004b2       0x2c ../../../../lib/ksdk_platform_lib/armgcc/KL03Z4/release/libksdk_platform.a(fsl_lpuart_driver.c.obj)
 .ARM.attributes
                0x00000000000004de       0x32 ../../../../lib/ksdk_platform_lib/armgcc/KL03Z4/release/libksdk_platform.a(fsl_lpuart_common.c.obj)
 .ARM.attributes
                0x0000000000000510       0x2c ../../../../lib/ksdk_platform_lib/armgcc/KL03Z4/release/libksdk_platform.a(fsl_mcglite_hal.c.obj)
 .ARM.attributes
                0x000000000000053c       0x2c ../../../../lib/ksdk_platform_lib/armgcc/KL03Z4/release/libksdk_platform.a(fsl_mcglite_hal_modes.c.obj)
 .ARM.attributes
                0x0000000000000568       0x2c ../../../../lib/ksdk_platform_lib/armgcc/KL03Z4/release/libksdk_platform.a(fsl_osc_hal.c.obj)
 .ARM.attributes
                0x0000000000000594       0x2c ../../../../lib/ksdk_platform_lib/armgcc/KL03Z4/release/libksdk_platform.a(fsl_rtc_hal.c.obj)
 .ARM.attributes
                0x00000000000005c0       0x2c ../../../../lib/ksdk_platform_lib/armgcc/KL03Z4/release/libksdk_platform.a(fsl_rtc_driver.c.obj)
 .ARM.attributes
                0x00000000000005ec       0x32 ../../../../lib/ksdk_platform_lib/armgcc/KL03Z4/release/libksdk_platform.a(fsl_rtc_common.c.obj)
 .ARM.attributes
                0x000000000000061e       0x2c ../../../../lib/ksdk_platform_lib/armgcc/KL03Z4/release/libksdk_platform.a(fsl_sim_hal_MKL03Z4.c.obj)
 .ARM.attributes
                0x000000000000064a       0x2c ../../../../lib/ksdk_platform_lib/armgcc/KL03Z4/release/libksdk_platform.a(fsl_spi_shared_function.c.obj)
 .ARM.attributes
                0x0000000000000676       0x2c ../../../../lib/ksdk_platform_lib/armgcc/KL03Z4/release/libksdk_platform.a(fsl_spi_master_driver.c.obj)
 .ARM.attributes
                0x00000000000006a2       0x2c ../../../../lib/ksdk_platform_lib/armgcc/KL03Z4/release/libksdk_platform.a(fsl_spi_slave_driver.c.obj)
 .ARM.attributes
                0x00000000000006ce       0x32 ../../../../lib/ksdk_platform_lib/armgcc/KL03Z4/release/libksdk_platform.a(fsl_spi_common.c.obj)
 .ARM.attributes
                0x0000000000000700       0x2c ../../../../lib/ksdk_platform_lib/armgcc/KL03Z4/release/libksdk_platform.a(fsl_smc_hal.c.obj)
 .ARM.attributes
                0x000000000000072c       0x32 ../../../../lib/ksdk_platform_lib/armgcc/KL03Z4/release/libksdk_platform.a(fsl_clock_manager_common.c.obj)
 .ARM.attributes
                0x000000000000075e       0x2c ../../../../lib/ksdk_platform_lib/armgcc/KL03Z4/release/libksdk_platform.a(fsl_gpio_hal.c.obj)
 .ARM.attributes
                0x000000000000078a       0x32 ../../../../lib/ksdk_platform_lib/armgcc/KL03Z4/release/libksdk_platform.a(fsl_gpio_common.c.obj)
 .ARM.attributes
                0x00000000000007bc       0x2c ../../../../lib/ksdk_platform_lib/armgcc/KL03Z4/release/libksdk_platform.a(fsl_i2c_hal.c.obj)
 .ARM.attributes
                0x00000000000007e8       0x2c ../../../../lib/ksdk_platform_lib/armgcc/KL03Z4/release/libksdk_platform.a(fsl_lpuart_hal.c.obj)
 .ARM.attributes
                0x0000000000000814       0x2c /usr/lib/gcc/arm-none-eabi/9.2.1/../../../arm-none-eabi/lib/thumb/v6-m/nofp/libm.a(lib_a-s_round.o)
 .ARM.attributes
                0x0000000000000840       0x2c /usr/lib/gcc/arm-none-eabi/9.2.1/../../../arm-none-eabi/lib/thumb/v6-m/nofp/libm.a(lib_a-w_sqrt.o)
 .ARM.attributes
                0x000000000000086c       0x2c /usr/lib/gcc/arm-none-eabi/9.2.1/../../../arm-none-eabi/lib/thumb/v6-m/nofp/libm.a(lib_a-e_sqrt.o)
 .ARM.attributes
                0x0000000000000898       0x2c /usr/lib/gcc/arm-none-eabi/9.2.1/../../../arm-none-eabi/lib/thumb/v6-m/nofp/libm.a(lib_a-s_lib_ver.o)
 .ARM.attributes
                0x00000000000008c4       0x2c /usr/lib/gcc/arm-none-eabi/9.2.1/../../../arm-none-eabi/lib/thumb/v6-m/nofp/libc_nano.a(lib_a-abs.o)
 .ARM.attributes
                0x00000000000008f0       0x2c /usr/lib/gcc/arm-none-eabi/9.2.1/../../../arm-none-eabi/lib/thumb/v6-m/nofp/libc_nano.a(lib_a-atexit.o)
 .ARM.attributes
                0x000000000000091c       0x2c /usr/lib/gcc/arm-none-eabi/9.2.1/../../../arm-none-eabi/lib/thumb/v6-m/nofp/libc_nano.a(lib_a-bzero.o)
 .ARM.attributes
                0x0000000000000948       0x2c /usr/lib/gcc/arm-none-eabi/9.2.1/../../../arm-none-eabi/lib/thumb/v6-m/nofp/libc_nano.a(lib_a-errno.o)
 .ARM.attributes
                0x0000000000000974       0x2c /usr/lib/gcc/arm-none-eabi/9.2.1/../../../arm-none-eabi/lib/thumb/v6-m/nofp/libc_nano.a(lib_a-exit.o)
 .ARM.attributes
                0x00000000000009a0       0x2c /usr/lib/gcc/arm-none-eabi/9.2.1/../../../arm-none-eabi/lib/thumb/v6-m/nofp/libc_nano.a(lib_a-fini.o)
 .ARM.attributes
                0x00000000000009cc       0x2c /usr/lib/gcc/arm-none-eabi/9.2.1/../../../arm-none-eabi/lib/thumb/v6-m/nofp/libc_nano.a(lib_a-impure.o)
 .ARM.attributes
                0x00000000000009f8       0x2c /usr/lib/gcc/arm-none-eabi/9.2.1/../../../arm-none-eabi/lib/thumb/v6-m/nofp/libc_nano.a(lib_a-init.o)
 .ARM.attributes
                0x0000000000000a24       0x2c /usr/lib/gcc/arm-none-eabi/9.2.1/../../../arm-none-eabi/lib/thumb/v6-m/nofp/libc_nano.a(lib_a-malloc.o)
 .ARM.attributes
                0x0000000000000a50       0x2c /usr/lib/gcc/arm-none-eabi/9.2.1/../../../arm-none-eabi/lib/thumb/v6-m/nofp/libc_nano.a(lib_a-memcpy-stub.o)
 .ARM.attributes
                0x0000000000000a7c       0x2c /usr/lib/gcc/arm-none-eabi/9.2.1/../../../arm-none-eabi/lib/thumb/v6-m/nofp/libc_nano.a(lib_a-memset.o)
 .ARM.attributes
                0x0000000000000aa8       0x2c /usr/lib/gcc/arm-none-eabi/9.2.1/../../../arm-none-eabi/lib/thumb/v6-m/nofp/libc_nano.a(lib_a-nano-freer.o)
 .ARM.attributes
                0x0000000000000ad4       0x2c /usr/lib/gcc/arm-none-eabi/9.2.1/../../../arm-none-eabi/lib/thumb/v6-m/nofp/libc_nano.a(lib_a-nano-mallocr.o)
 .ARM.attributes
                0x0000000000000b00       0x2c /usr/lib/gcc/arm-none-eabi/9.2.1/../../../arm-none-eabi/lib/thumb/v6-m/nofp/libc_nano.a(lib_a-sbrkr.o)
 .ARM.attributes
                0x0000000000000b2c       0x2c /usr/lib/gcc/arm-none-eabi/9.2.1/../../../arm-none-eabi/lib/thumb/v6-m/nofp/libc_nano.a(lib_a-strcpy.o)
 .ARM.attributes
                0x0000000000000b58       0x2c /usr/lib/gcc/arm-none-eabi/9.2.1/../../../arm-none-eabi/lib/thumb/v6-m/nofp/libc_nano.a(lib_a-strlen-stub.o)
 .ARM.attributes
                0x0000000000000b84       0x2c /usr/lib/gcc/arm-none-eabi/9.2.1/../../../arm-none-eabi/lib/thumb/v6-m/nofp/libc_nano.a(lib_a-__atexit.o)
 .ARM.attributes
                0x0000000000000bb0       0x2c /usr/lib/gcc/arm-none-eabi/9.2.1/../../../arm-none-eabi/lib/thumb/v6-m/nofp/libc_nano.a(lib_a-__call_atexit.o)
 .ARM.attributes
                0x0000000000000bdc       0x2c /usr/lib/gcc/arm-none-eabi/9.2.1/../../../arm-none-eabi/lib/thumb/v6-m/nofp/libc_nano.a(lib_a-mlock.o)
 .ARM.attributes
                0x0000000000000c08       0x2c /usr/lib/gcc/arm-none-eabi/9.2.1/../../../arm-none-eabi/lib/thumb/v6-m/nofp/libc_nano.a(lib_a-reent.o)
 .ARM.attributes
                0x0000000000000c34       0x1e /usr/lib/gcc/arm-none-eabi/9.2.1/thumb/v6-m/nofp/libgcc.a(_thumb1_case_uqi.o)
 .ARM.attributes
                0x0000000000000c52       0x1e /usr/lib/gcc/arm-none-eabi/9.2.1/thumb/v6-m/nofp/libgcc.a(_thumb1_case_shi.o)
 .ARM.attributes
                0x0000000000000c70       0x1e /usr/lib/gcc/arm-none-eabi/9.2.1/thumb/v6-m/nofp/libgcc.a(_udivsi3.o)
 .ARM.attributes
                0x0000000000000c8e       0x1e /usr/lib/gcc/arm-none-eabi/9.2.1/thumb/v6-m/nofp/libgcc.a(_divsi3.o)
 .ARM.attributes
                0x0000000000000cac       0x1e /usr/lib/gcc/arm-none-eabi/9.2.1/thumb/v6-m/nofp/libgcc.a(_dvmd_tls.o)
 .ARM.attributes
                0x0000000000000cca       0x1e /usr/lib/gcc/arm-none-eabi/9.2.1/thumb/v6-m/nofp/libgcc.a(_arm_cmpdf2.o)
 .ARM.attributes
                0x0000000000000ce8       0x2c /usr/lib/gcc/arm-none-eabi/9.2.1/thumb/v6-m/nofp/libgcc.a(_fixunsdfsi.o)
 .ARM.attributes
                0x0000000000000d14       0x2c /usr/lib/gcc/arm-none-eabi/9.2.1/thumb/v6-m/nofp/libgcc.a(adddf3.o)
 .ARM.attributes
                0x0000000000000d40       0x2c /usr/lib/gcc/arm-none-eabi/9.2.1/thumb/v6-m/nofp/libgcc.a(divdf3.o)
 .ARM.attributes
                0x0000000000000d6c       0x2c /usr/lib/gcc/arm-none-eabi/9.2.1/thumb/v6-m/nofp/libgcc.a(eqdf2.o)
 .ARM.attributes
                0x0000000000000d98       0x2c /usr/lib/gcc/arm-none-eabi/9.2.1/thumb/v6-m/nofp/libgcc.a(gedf2.o)
 .ARM.attributes
                0x0000000000000dc4       0x2c /usr/lib/gcc/arm-none-eabi/9.2.1/thumb/v6-m/nofp/libgcc.a(ledf2.o)
 .ARM.attributes
                0x0000000000000df0       0x2c /usr/lib/gcc/arm-none-eabi/9.2.1/thumb/v6-m/nofp/libgcc.a(muldf3.o)
 .ARM.attributes
                0x0000000000000e1c       0x2c /usr/lib/gcc/arm-none-eabi/9.2.1/thumb/v6-m/nofp/libgcc.a(subdf3.o)
 .ARM.attributes
                0x0000000000000e48       0x2c /usr/lib/gcc/arm-none-eabi/9.2.1/thumb/v6-m/nofp/libgcc.a(unorddf2.o)
 .ARM.attributes
                0x0000000000000e74       0x2c /usr/lib/gcc/arm-none-eabi/9.2.1/thumb/v6-m/nofp/libgcc.a(fixdfsi.o)
 .ARM.attributes
                0x0000000000000ea0       0x2c /usr/lib/gcc/arm-none-eabi/9.2.1/thumb/v6-m/nofp/libgcc.a(floatsidf.o)
 .ARM.attributes
                0x0000000000000ecc       0x1e /usr/lib/gcc/arm-none-eabi/9.2.1/thumb/v6-m/nofp/libgcc.a(_clzsi2.o)
 .ARM.attributes
                0x0000000000000eea       0x2c /usr/lib/gcc/arm-none-eabi/9.2.1/../../../arm-none-eabi/lib/thumb/v6-m/nofp/libnosys.a(_exit.o)
 .ARM.attributes
                0x0000000000000f16       0x2c /usr/lib/gcc/arm-none-eabi/9.2.1/thumb/v6-m/nofp/crtend.o
 .ARM.attributes
                0x0000000000000f42       0x1e /usr/lib/gcc/arm-none-eabi/9.2.1/thumb/v6-m/nofp/crtn.o
                0x0000000000000001                ASSERT ((__StackLimit >= __HeapLimit), region m_data overflowed with stack and heap)
OUTPUT(release/Warp.elf elf32-littlearm)
LOAD linker stubs

.comment        0x0000000000000000       0xa7
 .comment       0x0000000000000000       0x59 /usr/lib/gcc/arm-none-eabi/9.2.1/thumb/v6-m/nofp/crtbegin.o
                                         0x5a (size before relaxing)
 .comment       0x0000000000000059       0x5a CMakeFiles/Warp.dir/home/students/rr632/Warp-firmware/build/ksdk1.1/work/platform/utilities/src/fsl_misc_utilities.c.obj
 .comment       0x0000000000000059       0x5a CMakeFiles/Warp.dir/home/students/rr632/Warp-firmware/build/ksdk1.1/work/demos/Warp/src/script.c.obj
 .comment       0x0000000000000059       0x5a CMakeFiles/Warp.dir/home/students/rr632/Warp-firmware/build/ksdk1.1/work/demos/Warp/src/errstrsEN.c.obj
 .comment       0x0000000000000059       0x5a CMakeFiles/Warp.dir/home/students/rr632/Warp-firmware/build/ksdk1.1/work/demos/Warp/src/powermodes.c.obj
 .comment       0x0000000000000059       0x5a CMakeFiles/Warp.dir/home/students/rr632/Warp-firmware/build/ksdk1.1/work/demos/Warp/src/devMMA8451Q.c.obj
 .comment       0x0000000000000059       0x5a CMakeFiles/Warp.dir/home/students/rr632/Warp-firmware/build/ksdk1.1/work/demos/Warp/src/SEGGER_RTT.c.obj
 .comment       0x0000000000000059       0x5a CMakeFiles/Warp.dir/home/students/rr632/Warp-firmware/build/ksdk1.1/work/demos/Warp/src/SEGGER_RTT_printf.c.obj
 .comment       0x0000000000000059       0x5a CMakeFiles/Warp.dir/home/students/rr632/Warp-firmware/build/ksdk1.1/work/platform/drivers/src/i2c/fsl_i2c_irq.c.obj
 .comment       0x0000000000000059       0x5a CMakeFiles/Warp.dir/home/students/rr632/Warp-firmware/build/ksdk1.1/work/platform/drivers/src/spi/fsl_spi_irq.c.obj
 .comment       0x0000000000000059       0x5a CMakeFiles/Warp.dir/home/students/rr632/Warp-firmware/build/ksdk1.1/work/platform/drivers/src/lpuart/fsl_lpuart_irq.c.obj
 .comment       0x0000000000000059       0x5a CMakeFiles/Warp.dir/home/students/rr632/Warp-firmware/build/ksdk1.1/work/platform/startup/MKL03Z4/system_MKL03Z4.c.obj
 .comment       0x0000000000000059       0x5a CMakeFiles/Warp.dir/home/students/rr632/Warp-firmware/build/ksdk1.1/work/platform/startup/startup.c.obj
 .comment       0x0000000000000059       0x5a CMakeFiles/Warp.dir/home/students/rr632/Warp-firmware/build/ksdk1.1/work/boards/Warp/gpio_pins.c.obj
 .comment       0x0000000000000059       0x5a ../../../../lib/ksdk_platform_lib/armgcc/KL03Z4/release/libksdk_platform.a(fsl_os_abstraction_bm.c.obj)
 .comment       0x0000000000000059       0x5a ../../../../lib/ksdk_platform_lib/armgcc/KL03Z4/release/libksdk_platform.a(fsl_clock_manager.c.obj)
 .comment       0x0000000000000059       0x5a ../../../../lib/ksdk_platform_lib/armgcc/KL03Z4/release/libksdk_platform.a(fsl_clock_MKL03Z4.c.obj)
 .comment       0x0000000000000059       0x5a ../../../../lib/ksdk_platform_lib/armgcc/KL03Z4/release/libksdk_platform.a(fsl_interrupt_manager.c.obj)
 .comment       0x0000000000000059       0x5a ../../../../lib/ksdk_platform_lib/armgcc/KL03Z4/release/libksdk_platform.a(fsl_power_manager.c.obj)
 .comment       0x0000000000000059       0x5a ../../../../lib/ksdk_platform_lib/armgcc/KL03Z4/release/libksdk_platform.a(fsl_gpio_driver.c.obj)
 .comment       0x0000000000000059       0x5a ../../../../lib/ksdk_platform_lib/armgcc/KL03Z4/release/libksdk_platform.a(fsl_i2c_shared_function.c.obj)
 .comment       0x0000000000000059       0x5a ../../../../lib/ksdk_platform_lib/armgcc/KL03Z4/release/libksdk_platform.a(fsl_i2c_common.c.obj)
 .comment       0x0000000000000059       0x5a ../../../../lib/ksdk_platform_lib/armgcc/KL03Z4/release/libksdk_platform.a(fsl_i2c_master_driver.c.obj)
 .comment       0x0000000000000059       0x5a ../../../../lib/ksdk_platform_lib/armgcc/KL03Z4/release/libksdk_platform.a(fsl_i2c_slave_driver.c.obj)
 .comment       0x0000000000000059       0x5a ../../../../lib/ksdk_platform_lib/armgcc/KL03Z4/release/libksdk_platform.a(fsl_llwu_hal.c.obj)
 .comment       0x0000000000000059       0x5a ../../../../lib/ksdk_platform_lib/armgcc/KL03Z4/release/libksdk_platform.a(fsl_lpuart_driver.c.obj)
 .comment       0x0000000000000059       0x5a ../../../../lib/ksdk_platform_lib/armgcc/KL03Z4/release/libksdk_platform.a(fsl_lpuart_common.c.obj)
 .comment       0x0000000000000059       0x5a ../../../../lib/ksdk_platform_lib/armgcc/KL03Z4/release/libksdk_platform.a(fsl_mcglite_hal.c.obj)
 .comment       0x0000000000000059       0x5a ../../../../lib/ksdk_platform_lib/armgcc/KL03Z4/release/libksdk_platform.a(fsl_mcglite_hal_modes.c.obj)
 .comment       0x0000000000000059       0x5a ../../../../lib/ksdk_platform_lib/armgcc/KL03Z4/release/libksdk_platform.a(fsl_osc_hal.c.obj)
 .comment       0x0000000000000059       0x5a ../../../../lib/ksdk_platform_lib/armgcc/KL03Z4/release/libksdk_platform.a(fsl_rtc_hal.c.obj)
 .comment       0x0000000000000059       0x5a ../../../../lib/ksdk_platform_lib/armgcc/KL03Z4/release/libksdk_platform.a(fsl_rtc_driver.c.obj)
 .comment       0x0000000000000059       0x5a ../../../../lib/ksdk_platform_lib/armgcc/KL03Z4/release/libksdk_platform.a(fsl_rtc_common.c.obj)
 .comment       0x0000000000000059       0x5a ../../../../lib/ksdk_platform_lib/armgcc/KL03Z4/release/libksdk_platform.a(fsl_sim_hal_MKL03Z4.c.obj)
 .comment       0x0000000000000059       0x5a ../../../../lib/ksdk_platform_lib/armgcc/KL03Z4/release/libksdk_platform.a(fsl_spi_shared_function.c.obj)
 .comment       0x0000000000000059       0x5a ../../../../lib/ksdk_platform_lib/armgcc/KL03Z4/release/libksdk_platform.a(fsl_spi_master_driver.c.obj)
 .comment       0x0000000000000059       0x5a ../../../../lib/ksdk_platform_lib/armgcc/KL03Z4/release/libksdk_platform.a(fsl_spi_slave_driver.c.obj)
 .comment       0x0000000000000059       0x5a ../../../../lib/ksdk_platform_lib/armgcc/KL03Z4/release/libksdk_platform.a(fsl_spi_common.c.obj)
 .comment       0x0000000000000059       0x5a ../../../../lib/ksdk_platform_lib/armgcc/KL03Z4/release/libksdk_platform.a(fsl_smc_hal.c.obj)
 .comment       0x0000000000000059       0x5a ../../../../lib/ksdk_platform_lib/armgcc/KL03Z4/release/libksdk_platform.a(fsl_clock_manager_common.c.obj)
 .comment       0x0000000000000059       0x5a ../../../../lib/ksdk_platform_lib/armgcc/KL03Z4/release/libksdk_platform.a(fsl_gpio_hal.c.obj)
 .comment       0x0000000000000059       0x5a ../../../../lib/ksdk_platform_lib/armgcc/KL03Z4/release/libksdk_platform.a(fsl_gpio_common.c.obj)
 .comment       0x0000000000000059       0x5a ../../../../lib/ksdk_platform_lib/armgcc/KL03Z4/release/libksdk_platform.a(fsl_i2c_hal.c.obj)
 .comment       0x0000000000000059       0x5a ../../../../lib/ksdk_platform_lib/armgcc/KL03Z4/release/libksdk_platform.a(fsl_lpuart_hal.c.obj)
 .comment       0x0000000000000059       0x4e /usr/lib/gcc/arm-none-eabi/9.2.1/../../../arm-none-eabi/lib/thumb/v6-m/nofp/libm.a(lib_a-s_round.o)
                                         0x4f (size before relaxing)
 .comment       0x00000000000000a7       0x4f /usr/lib/gcc/arm-none-eabi/9.2.1/../../../arm-none-eabi/lib/thumb/v6-m/nofp/libm.a(lib_a-w_sqrt.o)
 .comment       0x00000000000000a7       0x4f /usr/lib/gcc/arm-none-eabi/9.2.1/../../../arm-none-eabi/lib/thumb/v6-m/nofp/libm.a(lib_a-e_sqrt.o)
 .comment       0x00000000000000a7       0x4f /usr/lib/gcc/arm-none-eabi/9.2.1/../../../arm-none-eabi/lib/thumb/v6-m/nofp/libm.a(lib_a-s_lib_ver.o)
 .comment       0x00000000000000a7       0x4f /usr/lib/gcc/arm-none-eabi/9.2.1/../../../arm-none-eabi/lib/thumb/v6-m/nofp/libc_nano.a(lib_a-abs.o)
 .comment       0x00000000000000a7       0x4f /usr/lib/gcc/arm-none-eabi/9.2.1/../../../arm-none-eabi/lib/thumb/v6-m/nofp/libc_nano.a(lib_a-atexit.o)
 .comment       0x00000000000000a7       0x4f /usr/lib/gcc/arm-none-eabi/9.2.1/../../../arm-none-eabi/lib/thumb/v6-m/nofp/libc_nano.a(lib_a-bzero.o)
 .comment       0x00000000000000a7       0x4f /usr/lib/gcc/arm-none-eabi/9.2.1/../../../arm-none-eabi/lib/thumb/v6-m/nofp/libc_nano.a(lib_a-errno.o)
 .comment       0x00000000000000a7       0x4f /usr/lib/gcc/arm-none-eabi/9.2.1/../../../arm-none-eabi/lib/thumb/v6-m/nofp/libc_nano.a(lib_a-exit.o)
 .comment       0x00000000000000a7       0x4f /usr/lib/gcc/arm-none-eabi/9.2.1/../../../arm-none-eabi/lib/thumb/v6-m/nofp/libc_nano.a(lib_a-fini.o)
 .comment       0x00000000000000a7       0x4f /usr/lib/gcc/arm-none-eabi/9.2.1/../../../arm-none-eabi/lib/thumb/v6-m/nofp/libc_nano.a(lib_a-impure.o)
 .comment       0x00000000000000a7       0x4f /usr/lib/gcc/arm-none-eabi/9.2.1/../../../arm-none-eabi/lib/thumb/v6-m/nofp/libc_nano.a(lib_a-init.o)
 .comment       0x00000000000000a7       0x4f /usr/lib/gcc/arm-none-eabi/9.2.1/../../../arm-none-eabi/lib/thumb/v6-m/nofp/libc_nano.a(lib_a-malloc.o)
 .comment       0x00000000000000a7       0x4f /usr/lib/gcc/arm-none-eabi/9.2.1/../../../arm-none-eabi/lib/thumb/v6-m/nofp/libc_nano.a(lib_a-memcpy-stub.o)
 .comment       0x00000000000000a7       0x4f /usr/lib/gcc/arm-none-eabi/9.2.1/../../../arm-none-eabi/lib/thumb/v6-m/nofp/libc_nano.a(lib_a-memset.o)
 .comment       0x00000000000000a7       0x4f /usr/lib/gcc/arm-none-eabi/9.2.1/../../../arm-none-eabi/lib/thumb/v6-m/nofp/libc_nano.a(lib_a-nano-freer.o)
 .comment       0x00000000000000a7       0x4f /usr/lib/gcc/arm-none-eabi/9.2.1/../../../arm-none-eabi/lib/thumb/v6-m/nofp/libc_nano.a(lib_a-nano-mallocr.o)
 .comment       0x00000000000000a7       0x4f /usr/lib/gcc/arm-none-eabi/9.2.1/../../../arm-none-eabi/lib/thumb/v6-m/nofp/libc_nano.a(lib_a-sbrkr.o)
 .comment       0x00000000000000a7       0x4f /usr/lib/gcc/arm-none-eabi/9.2.1/../../../arm-none-eabi/lib/thumb/v6-m/nofp/libc_nano.a(lib_a-strcpy.o)
 .comment       0x00000000000000a7       0x4f /usr/lib/gcc/arm-none-eabi/9.2.1/../../../arm-none-eabi/lib/thumb/v6-m/nofp/libc_nano.a(lib_a-strlen-stub.o)
 .comment       0x00000000000000a7       0x4f /usr/lib/gcc/arm-none-eabi/9.2.1/../../../arm-none-eabi/lib/thumb/v6-m/nofp/libc_nano.a(lib_a-__atexit.o)
 .comment       0x00000000000000a7       0x4f /usr/lib/gcc/arm-none-eabi/9.2.1/../../../arm-none-eabi/lib/thumb/v6-m/nofp/libc_nano.a(lib_a-__call_atexit.o)
 .comment       0x00000000000000a7       0x4f /usr/lib/gcc/arm-none-eabi/9.2.1/../../../arm-none-eabi/lib/thumb/v6-m/nofp/libc_nano.a(lib_a-mlock.o)
 .comment       0x00000000000000a7       0x4f /usr/lib/gcc/arm-none-eabi/9.2.1/../../../arm-none-eabi/lib/thumb/v6-m/nofp/libc_nano.a(lib_a-reent.o)
 .comment       0x00000000000000a7       0x5a /usr/lib/gcc/arm-none-eabi/9.2.1/thumb/v6-m/nofp/libgcc.a(_fixunsdfsi.o)
 .comment       0x00000000000000a7       0x5a /usr/lib/gcc/arm-none-eabi/9.2.1/thumb/v6-m/nofp/libgcc.a(adddf3.o)
 .comment       0x00000000000000a7       0x5a /usr/lib/gcc/arm-none-eabi/9.2.1/thumb/v6-m/nofp/libgcc.a(divdf3.o)
 .comment       0x00000000000000a7       0x5a /usr/lib/gcc/arm-none-eabi/9.2.1/thumb/v6-m/nofp/libgcc.a(eqdf2.o)
 .comment       0x00000000000000a7       0x5a /usr/lib/gcc/arm-none-eabi/9.2.1/thumb/v6-m/nofp/libgcc.a(gedf2.o)
 .comment       0x00000000000000a7       0x5a /usr/lib/gcc/arm-none-eabi/9.2.1/thumb/v6-m/nofp/libgcc.a(ledf2.o)
 .comment       0x00000000000000a7       0x5a /usr/lib/gcc/arm-none-eabi/9.2.1/thumb/v6-m/nofp/libgcc.a(muldf3.o)
 .comment       0x00000000000000a7       0x5a /usr/lib/gcc/arm-none-eabi/9.2.1/thumb/v6-m/nofp/libgcc.a(subdf3.o)
 .comment       0x00000000000000a7       0x5a /usr/lib/gcc/arm-none-eabi/9.2.1/thumb/v6-m/nofp/libgcc.a(unorddf2.o)
 .comment       0x00000000000000a7       0x5a /usr/lib/gcc/arm-none-eabi/9.2.1/thumb/v6-m/nofp/libgcc.a(fixdfsi.o)
 .comment       0x00000000000000a7       0x5a /usr/lib/gcc/arm-none-eabi/9.2.1/thumb/v6-m/nofp/libgcc.a(floatsidf.o)
 .comment       0x00000000000000a7       0x4f /usr/lib/gcc/arm-none-eabi/9.2.1/../../../arm-none-eabi/lib/thumb/v6-m/nofp/libnosys.a(_exit.o)
 .comment       0x00000000000000a7       0x5a /usr/lib/gcc/arm-none-eabi/9.2.1/thumb/v6-m/nofp/crtend.o

.debug_line     0x0000000000000000     0x6e3c
 .debug_line    0x0000000000000000       0x8c /usr/lib/gcc/arm-none-eabi/9.2.1/../../../arm-none-eabi/lib/thumb/v6-m/nofp/crt0.o
 .debug_line    0x000000000000008c      0x2e8 /usr/lib/gcc/arm-none-eabi/9.2.1/../../../arm-none-eabi/lib/thumb/v6-m/nofp/libm.a(lib_a-s_round.o)
 .debug_line    0x0000000000000374      0x1c6 /usr/lib/gcc/arm-none-eabi/9.2.1/../../../arm-none-eabi/lib/thumb/v6-m/nofp/libm.a(lib_a-w_sqrt.o)
 .debug_line    0x000000000000053a      0x4d1 /usr/lib/gcc/arm-none-eabi/9.2.1/../../../arm-none-eabi/lib/thumb/v6-m/nofp/libm.a(lib_a-e_sqrt.o)
 .debug_line    0x0000000000000a0b      0x127 /usr/lib/gcc/arm-none-eabi/9.2.1/../../../arm-none-eabi/lib/thumb/v6-m/nofp/libm.a(lib_a-s_lib_ver.o)
 .debug_line    0x0000000000000b32      0x13f /usr/lib/gcc/arm-none-eabi/9.2.1/../../../arm-none-eabi/lib/thumb/v6-m/nofp/libc_nano.a(lib_a-abs.o)
 .debug_line    0x0000000000000c71      0x152 /usr/lib/gcc/arm-none-eabi/9.2.1/../../../arm-none-eabi/lib/thumb/v6-m/nofp/libc_nano.a(lib_a-atexit.o)
 .debug_line    0x0000000000000dc3      0x152 /usr/lib/gcc/arm-none-eabi/9.2.1/../../../arm-none-eabi/lib/thumb/v6-m/nofp/libc_nano.a(lib_a-bzero.o)
 .debug_line    0x0000000000000f15      0x10e /usr/lib/gcc/arm-none-eabi/9.2.1/../../../arm-none-eabi/lib/thumb/v6-m/nofp/libc_nano.a(lib_a-errno.o)
 .debug_line    0x0000000000001023      0x16a /usr/lib/gcc/arm-none-eabi/9.2.1/../../../arm-none-eabi/lib/thumb/v6-m/nofp/libc_nano.a(lib_a-exit.o)
 .debug_line    0x000000000000118d       0xd4 /usr/lib/gcc/arm-none-eabi/9.2.1/../../../arm-none-eabi/lib/thumb/v6-m/nofp/libc_nano.a(lib_a-fini.o)
 .debug_line    0x0000000000001261       0xe3 /usr/lib/gcc/arm-none-eabi/9.2.1/../../../arm-none-eabi/lib/thumb/v6-m/nofp/libc_nano.a(lib_a-impure.o)
 .debug_line    0x0000000000001344       0xfc /usr/lib/gcc/arm-none-eabi/9.2.1/../../../arm-none-eabi/lib/thumb/v6-m/nofp/libc_nano.a(lib_a-init.o)
 .debug_line    0x0000000000001440      0x16e /usr/lib/gcc/arm-none-eabi/9.2.1/../../../arm-none-eabi/lib/thumb/v6-m/nofp/libc_nano.a(lib_a-malloc.o)
 .debug_line    0x00000000000015ae      0x24d /usr/lib/gcc/arm-none-eabi/9.2.1/../../../arm-none-eabi/lib/thumb/v6-m/nofp/libc_nano.a(lib_a-memcpy-stub.o)
 .debug_line    0x00000000000017fb      0x281 /usr/lib/gcc/arm-none-eabi/9.2.1/../../../arm-none-eabi/lib/thumb/v6-m/nofp/libc_nano.a(lib_a-memset.o)
 .debug_line    0x0000000000001a7c      0x2ab /usr/lib/gcc/arm-none-eabi/9.2.1/../../../arm-none-eabi/lib/thumb/v6-m/nofp/libc_nano.a(lib_a-nano-freer.o)
 .debug_line    0x0000000000001d27      0x2f2 /usr/lib/gcc/arm-none-eabi/9.2.1/../../../arm-none-eabi/lib/thumb/v6-m/nofp/libc_nano.a(lib_a-nano-mallocr.o)
 .debug_line    0x0000000000002019      0x185 /usr/lib/gcc/arm-none-eabi/9.2.1/../../../arm-none-eabi/lib/thumb/v6-m/nofp/libc_nano.a(lib_a-sbrkr.o)
 .debug_line    0x000000000000219e      0x147 /usr/lib/gcc/arm-none-eabi/9.2.1/../../../arm-none-eabi/lib/thumb/v6-m/nofp/libc_nano.a(lib_a-strcpy.o)
 .debug_line    0x00000000000022e5      0x1c2 /usr/lib/gcc/arm-none-eabi/9.2.1/../../../arm-none-eabi/lib/thumb/v6-m/nofp/libc_nano.a(lib_a-strlen-stub.o)
 .debug_line    0x00000000000024a7      0x247 /usr/lib/gcc/arm-none-eabi/9.2.1/../../../arm-none-eabi/lib/thumb/v6-m/nofp/libc_nano.a(lib_a-__atexit.o)
 .debug_line    0x00000000000026ee      0x242 /usr/lib/gcc/arm-none-eabi/9.2.1/../../../arm-none-eabi/lib/thumb/v6-m/nofp/libc_nano.a(lib_a-__call_atexit.o)
 .debug_line    0x0000000000002930      0x13d /usr/lib/gcc/arm-none-eabi/9.2.1/../../../arm-none-eabi/lib/thumb/v6-m/nofp/libc_nano.a(lib_a-mlock.o)
 .debug_line    0x0000000000002a6d      0x264 /usr/lib/gcc/arm-none-eabi/9.2.1/../../../arm-none-eabi/lib/thumb/v6-m/nofp/libc_nano.a(lib_a-reent.o)
 .debug_line    0x0000000000002cd1       0x68 /usr/lib/gcc/arm-none-eabi/9.2.1/thumb/v6-m/nofp/libgcc.a(_thumb1_case_uqi.o)
 .debug_line    0x0000000000002d39       0x69 /usr/lib/gcc/arm-none-eabi/9.2.1/thumb/v6-m/nofp/libgcc.a(_thumb1_case_shi.o)
 .debug_line    0x0000000000002da2       0x6c /usr/lib/gcc/arm-none-eabi/9.2.1/thumb/v6-m/nofp/libgcc.a(_udivsi3.o)
 .debug_line    0x0000000000002e0e       0x73 /usr/lib/gcc/arm-none-eabi/9.2.1/thumb/v6-m/nofp/libgcc.a(_divsi3.o)
 .debug_line    0x0000000000002e81       0x60 /usr/lib/gcc/arm-none-eabi/9.2.1/thumb/v6-m/nofp/libgcc.a(_dvmd_tls.o)
 .debug_line    0x0000000000002ee1       0x78 /usr/lib/gcc/arm-none-eabi/9.2.1/thumb/v6-m/nofp/libgcc.a(_arm_cmpdf2.o)
 .debug_line    0x0000000000002f59      0x134 /usr/lib/gcc/arm-none-eabi/9.2.1/thumb/v6-m/nofp/libgcc.a(_fixunsdfsi.o)
 .debug_line    0x000000000000308d      0xe8a /usr/lib/gcc/arm-none-eabi/9.2.1/thumb/v6-m/nofp/libgcc.a(adddf3.o)
 .debug_line    0x0000000000003f17      0xb66 /usr/lib/gcc/arm-none-eabi/9.2.1/thumb/v6-m/nofp/libgcc.a(divdf3.o)
 .debug_line    0x0000000000004a7d      0x168 /usr/lib/gcc/arm-none-eabi/9.2.1/thumb/v6-m/nofp/libgcc.a(eqdf2.o)
 .debug_line    0x0000000000004be5      0x1df /usr/lib/gcc/arm-none-eabi/9.2.1/thumb/v6-m/nofp/libgcc.a(gedf2.o)
 .debug_line    0x0000000000004dc4      0x1d7 /usr/lib/gcc/arm-none-eabi/9.2.1/thumb/v6-m/nofp/libgcc.a(ledf2.o)
 .debug_line    0x0000000000004f9b      0x9e3 /usr/lib/gcc/arm-none-eabi/9.2.1/thumb/v6-m/nofp/libgcc.a(muldf3.o)
 .debug_line    0x000000000000597e      0xf92 /usr/lib/gcc/arm-none-eabi/9.2.1/thumb/v6-m/nofp/libgcc.a(subdf3.o)
 .debug_line    0x0000000000006910      0x11f /usr/lib/gcc/arm-none-eabi/9.2.1/thumb/v6-m/nofp/libgcc.a(unorddf2.o)
 .debug_line    0x0000000000006a2f      0x170 /usr/lib/gcc/arm-none-eabi/9.2.1/thumb/v6-m/nofp/libgcc.a(fixdfsi.o)
 .debug_line    0x0000000000006b9f      0x1bb /usr/lib/gcc/arm-none-eabi/9.2.1/thumb/v6-m/nofp/libgcc.a(floatsidf.o)
 .debug_line    0x0000000000006d5a       0x74 /usr/lib/gcc/arm-none-eabi/9.2.1/thumb/v6-m/nofp/libgcc.a(_clzsi2.o)
 .debug_line    0x0000000000006dce       0x6e /usr/lib/gcc/arm-none-eabi/9.2.1/../../../arm-none-eabi/lib/thumb/v6-m/nofp/libnosys.a(_exit.o)

.debug_info     0x0000000000000000    0x12091
 .debug_info    0x0000000000000000       0x26 /usr/lib/gcc/arm-none-eabi/9.2.1/../../../arm-none-eabi/lib/thumb/v6-m/nofp/crt0.o
 .debug_info    0x0000000000000026      0xa98 /usr/lib/gcc/arm-none-eabi/9.2.1/../../../arm-none-eabi/lib/thumb/v6-m/nofp/libm.a(lib_a-s_round.o)
 .debug_info    0x0000000000000abe      0x9ee /usr/lib/gcc/arm-none-eabi/9.2.1/../../../arm-none-eabi/lib/thumb/v6-m/nofp/libm.a(lib_a-w_sqrt.o)
 .debug_info    0x00000000000014ac      0xb2f /usr/lib/gcc/arm-none-eabi/9.2.1/../../../arm-none-eabi/lib/thumb/v6-m/nofp/libm.a(lib_a-e_sqrt.o)
 .debug_info    0x0000000000001fdb      0x94b /usr/lib/gcc/arm-none-eabi/9.2.1/../../../arm-none-eabi/lib/thumb/v6-m/nofp/libm.a(lib_a-s_lib_ver.o)
 .debug_info    0x0000000000002926      0x93f /usr/lib/gcc/arm-none-eabi/9.2.1/../../../arm-none-eabi/lib/thumb/v6-m/nofp/libc_nano.a(lib_a-abs.o)
 .debug_info    0x0000000000003265      0x995 /usr/lib/gcc/arm-none-eabi/9.2.1/../../../arm-none-eabi/lib/thumb/v6-m/nofp/libc_nano.a(lib_a-atexit.o)
 .debug_info    0x0000000000003bfa      0x97c /usr/lib/gcc/arm-none-eabi/9.2.1/../../../arm-none-eabi/lib/thumb/v6-m/nofp/libc_nano.a(lib_a-bzero.o)
 .debug_info    0x0000000000004576      0x953 /usr/lib/gcc/arm-none-eabi/9.2.1/../../../arm-none-eabi/lib/thumb/v6-m/nofp/libc_nano.a(lib_a-errno.o)
 .debug_info    0x0000000000004ec9      0x9e7 /usr/lib/gcc/arm-none-eabi/9.2.1/../../../arm-none-eabi/lib/thumb/v6-m/nofp/libc_nano.a(lib_a-exit.o)
 .debug_info    0x00000000000058b0      0x102 /usr/lib/gcc/arm-none-eabi/9.2.1/../../../arm-none-eabi/lib/thumb/v6-m/nofp/libc_nano.a(lib_a-fini.o)
 .debug_info    0x00000000000059b2      0x92a /usr/lib/gcc/arm-none-eabi/9.2.1/../../../arm-none-eabi/lib/thumb/v6-m/nofp/libc_nano.a(lib_a-impure.o)
 .debug_info    0x00000000000062dc      0x11a /usr/lib/gcc/arm-none-eabi/9.2.1/../../../arm-none-eabi/lib/thumb/v6-m/nofp/libc_nano.a(lib_a-init.o)
 .debug_info    0x00000000000063f6      0x9b6 /usr/lib/gcc/arm-none-eabi/9.2.1/../../../arm-none-eabi/lib/thumb/v6-m/nofp/libc_nano.a(lib_a-malloc.o)
 .debug_info    0x0000000000006dac      0xf35 /usr/lib/gcc/arm-none-eabi/9.2.1/../../../arm-none-eabi/lib/thumb/v6-m/nofp/libc_nano.a(lib_a-memcpy-stub.o)
 .debug_info    0x0000000000007ce1      0xf21 /usr/lib/gcc/arm-none-eabi/9.2.1/../../../arm-none-eabi/lib/thumb/v6-m/nofp/libc_nano.a(lib_a-memset.o)
 .debug_info    0x0000000000008c02      0xb82 /usr/lib/gcc/arm-none-eabi/9.2.1/../../../arm-none-eabi/lib/thumb/v6-m/nofp/libc_nano.a(lib_a-nano-freer.o)
 .debug_info    0x0000000000009784      0xc57 /usr/lib/gcc/arm-none-eabi/9.2.1/../../../arm-none-eabi/lib/thumb/v6-m/nofp/libc_nano.a(lib_a-nano-mallocr.o)
 .debug_info    0x000000000000a3db      0x9fb /usr/lib/gcc/arm-none-eabi/9.2.1/../../../arm-none-eabi/lib/thumb/v6-m/nofp/libc_nano.a(lib_a-sbrkr.o)
 .debug_info    0x000000000000add6      0x943 /usr/lib/gcc/arm-none-eabi/9.2.1/../../../arm-none-eabi/lib/thumb/v6-m/nofp/libc_nano.a(lib_a-strcpy.o)
 .debug_info    0x000000000000b719      0x973 /usr/lib/gcc/arm-none-eabi/9.2.1/../../../arm-none-eabi/lib/thumb/v6-m/nofp/libc_nano.a(lib_a-strlen-stub.o)
 .debug_info    0x000000000000c08c      0xa3c /usr/lib/gcc/arm-none-eabi/9.2.1/../../../arm-none-eabi/lib/thumb/v6-m/nofp/libc_nano.a(lib_a-__atexit.o)
 .debug_info    0x000000000000cac8      0xa10 /usr/lib/gcc/arm-none-eabi/9.2.1/../../../arm-none-eabi/lib/thumb/v6-m/nofp/libc_nano.a(lib_a-__call_atexit.o)
 .debug_info    0x000000000000d4d8      0x961 /usr/lib/gcc/arm-none-eabi/9.2.1/../../../arm-none-eabi/lib/thumb/v6-m/nofp/libc_nano.a(lib_a-mlock.o)
 .debug_info    0x000000000000de39      0xb0c /usr/lib/gcc/arm-none-eabi/9.2.1/../../../arm-none-eabi/lib/thumb/v6-m/nofp/libc_nano.a(lib_a-reent.o)
 .debug_info    0x000000000000e945       0x26 /usr/lib/gcc/arm-none-eabi/9.2.1/thumb/v6-m/nofp/libgcc.a(_thumb1_case_uqi.o)
 .debug_info    0x000000000000e96b       0x26 /usr/lib/gcc/arm-none-eabi/9.2.1/thumb/v6-m/nofp/libgcc.a(_thumb1_case_shi.o)
 .debug_info    0x000000000000e991       0x26 /usr/lib/gcc/arm-none-eabi/9.2.1/thumb/v6-m/nofp/libgcc.a(_udivsi3.o)
 .debug_info    0x000000000000e9b7       0x26 /usr/lib/gcc/arm-none-eabi/9.2.1/thumb/v6-m/nofp/libgcc.a(_divsi3.o)
 .debug_info    0x000000000000e9dd       0x26 /usr/lib/gcc/arm-none-eabi/9.2.1/thumb/v6-m/nofp/libgcc.a(_dvmd_tls.o)
 .debug_info    0x000000000000ea03       0x26 /usr/lib/gcc/arm-none-eabi/9.2.1/thumb/v6-m/nofp/libgcc.a(_arm_cmpdf2.o)
 .debug_info    0x000000000000ea29      0x940 /usr/lib/gcc/arm-none-eabi/9.2.1/thumb/v6-m/nofp/libgcc.a(_fixunsdfsi.o)
 .debug_info    0x000000000000f369      0x624 /usr/lib/gcc/arm-none-eabi/9.2.1/thumb/v6-m/nofp/libgcc.a(adddf3.o)
 .debug_info    0x000000000000f98d      0x82b /usr/lib/gcc/arm-none-eabi/9.2.1/thumb/v6-m/nofp/libgcc.a(divdf3.o)
 .debug_info    0x00000000000101b8      0x297 /usr/lib/gcc/arm-none-eabi/9.2.1/thumb/v6-m/nofp/libgcc.a(eqdf2.o)
 .debug_info    0x000000000001044f      0x2b5 /usr/lib/gcc/arm-none-eabi/9.2.1/thumb/v6-m/nofp/libgcc.a(gedf2.o)
 .debug_info    0x0000000000010704      0x2b5 /usr/lib/gcc/arm-none-eabi/9.2.1/thumb/v6-m/nofp/libgcc.a(ledf2.o)
 .debug_info    0x00000000000109b9      0x857 /usr/lib/gcc/arm-none-eabi/9.2.1/thumb/v6-m/nofp/libgcc.a(muldf3.o)
 .debug_info    0x0000000000011210      0x630 /usr/lib/gcc/arm-none-eabi/9.2.1/thumb/v6-m/nofp/libgcc.a(subdf3.o)
 .debug_info    0x0000000000011840      0x27d /usr/lib/gcc/arm-none-eabi/9.2.1/thumb/v6-m/nofp/libgcc.a(unorddf2.o)
 .debug_info    0x0000000000011abd      0x21b /usr/lib/gcc/arm-none-eabi/9.2.1/thumb/v6-m/nofp/libgcc.a(fixdfsi.o)
 .debug_info    0x0000000000011cd8      0x2f0 /usr/lib/gcc/arm-none-eabi/9.2.1/thumb/v6-m/nofp/libgcc.a(floatsidf.o)
 .debug_info    0x0000000000011fc8       0x26 /usr/lib/gcc/arm-none-eabi/9.2.1/thumb/v6-m/nofp/libgcc.a(_clzsi2.o)
 .debug_info    0x0000000000011fee       0xa3 /usr/lib/gcc/arm-none-eabi/9.2.1/../../../arm-none-eabi/lib/thumb/v6-m/nofp/libnosys.a(_exit.o)

.debug_abbrev   0x0000000000000000     0x3fdf
 .debug_abbrev  0x0000000000000000       0x14 /usr/lib/gcc/arm-none-eabi/9.2.1/../../../arm-none-eabi/lib/thumb/v6-m/nofp/crt0.o
 .debug_abbrev  0x0000000000000014      0x25c /usr/lib/gcc/arm-none-eabi/9.2.1/../../../arm-none-eabi/lib/thumb/v6-m/nofp/libm.a(lib_a-s_round.o)
 .debug_abbrev  0x0000000000000270      0x25e /usr/lib/gcc/arm-none-eabi/9.2.1/../../../arm-none-eabi/lib/thumb/v6-m/nofp/libm.a(lib_a-w_sqrt.o)
 .debug_abbrev  0x00000000000004ce      0x284 /usr/lib/gcc/arm-none-eabi/9.2.1/../../../arm-none-eabi/lib/thumb/v6-m/nofp/libm.a(lib_a-e_sqrt.o)
 .debug_abbrev  0x0000000000000752      0x1d4 /usr/lib/gcc/arm-none-eabi/9.2.1/../../../arm-none-eabi/lib/thumb/v6-m/nofp/libm.a(lib_a-s_lib_ver.o)
 .debug_abbrev  0x0000000000000926      0x1a7 /usr/lib/gcc/arm-none-eabi/9.2.1/../../../arm-none-eabi/lib/thumb/v6-m/nofp/libc_nano.a(lib_a-abs.o)
 .debug_abbrev  0x0000000000000acd      0x1f1 /usr/lib/gcc/arm-none-eabi/9.2.1/../../../arm-none-eabi/lib/thumb/v6-m/nofp/libc_nano.a(lib_a-atexit.o)
 .debug_abbrev  0x0000000000000cbe      0x1d2 /usr/lib/gcc/arm-none-eabi/9.2.1/../../../arm-none-eabi/lib/thumb/v6-m/nofp/libc_nano.a(lib_a-bzero.o)
 .debug_abbrev  0x0000000000000e90      0x198 /usr/lib/gcc/arm-none-eabi/9.2.1/../../../arm-none-eabi/lib/thumb/v6-m/nofp/libc_nano.a(lib_a-errno.o)
 .debug_abbrev  0x0000000000001028      0x1f6 /usr/lib/gcc/arm-none-eabi/9.2.1/../../../arm-none-eabi/lib/thumb/v6-m/nofp/libc_nano.a(lib_a-exit.o)
 .debug_abbrev  0x000000000000121e       0xcc /usr/lib/gcc/arm-none-eabi/9.2.1/../../../arm-none-eabi/lib/thumb/v6-m/nofp/libc_nano.a(lib_a-fini.o)
 .debug_abbrev  0x00000000000012ea      0x17a /usr/lib/gcc/arm-none-eabi/9.2.1/../../../arm-none-eabi/lib/thumb/v6-m/nofp/libc_nano.a(lib_a-impure.o)
 .debug_abbrev  0x0000000000001464       0xcc /usr/lib/gcc/arm-none-eabi/9.2.1/../../../arm-none-eabi/lib/thumb/v6-m/nofp/libc_nano.a(lib_a-init.o)
 .debug_abbrev  0x0000000000001530      0x1ef /usr/lib/gcc/arm-none-eabi/9.2.1/../../../arm-none-eabi/lib/thumb/v6-m/nofp/libc_nano.a(lib_a-malloc.o)
 .debug_abbrev  0x000000000000171f      0x1e5 /usr/lib/gcc/arm-none-eabi/9.2.1/../../../arm-none-eabi/lib/thumb/v6-m/nofp/libc_nano.a(lib_a-memcpy-stub.o)
 .debug_abbrev  0x0000000000001904      0x1d9 /usr/lib/gcc/arm-none-eabi/9.2.1/../../../arm-none-eabi/lib/thumb/v6-m/nofp/libc_nano.a(lib_a-memset.o)
 .debug_abbrev  0x0000000000001add      0x273 /usr/lib/gcc/arm-none-eabi/9.2.1/../../../arm-none-eabi/lib/thumb/v6-m/nofp/libc_nano.a(lib_a-nano-freer.o)
 .debug_abbrev  0x0000000000001d50      0x2d8 /usr/lib/gcc/arm-none-eabi/9.2.1/../../../arm-none-eabi/lib/thumb/v6-m/nofp/libc_nano.a(lib_a-nano-mallocr.o)
 .debug_abbrev  0x0000000000002028      0x212 /usr/lib/gcc/arm-none-eabi/9.2.1/../../../arm-none-eabi/lib/thumb/v6-m/nofp/libc_nano.a(lib_a-sbrkr.o)
 .debug_abbrev  0x000000000000223a      0x1a5 /usr/lib/gcc/arm-none-eabi/9.2.1/../../../arm-none-eabi/lib/thumb/v6-m/nofp/libc_nano.a(lib_a-strcpy.o)
 .debug_abbrev  0x00000000000023df      0x1aa /usr/lib/gcc/arm-none-eabi/9.2.1/../../../arm-none-eabi/lib/thumb/v6-m/nofp/libc_nano.a(lib_a-strlen-stub.o)
 .debug_abbrev  0x0000000000002589      0x261 /usr/lib/gcc/arm-none-eabi/9.2.1/../../../arm-none-eabi/lib/thumb/v6-m/nofp/libc_nano.a(lib_a-__atexit.o)
 .debug_abbrev  0x00000000000027ea      0x237 /usr/lib/gcc/arm-none-eabi/9.2.1/../../../arm-none-eabi/lib/thumb/v6-m/nofp/libc_nano.a(lib_a-__call_atexit.o)
 .debug_abbrev  0x0000000000002a21      0x1c5 /usr/lib/gcc/arm-none-eabi/9.2.1/../../../arm-none-eabi/lib/thumb/v6-m/nofp/libc_nano.a(lib_a-mlock.o)
 .debug_abbrev  0x0000000000002be6      0x25a /usr/lib/gcc/arm-none-eabi/9.2.1/../../../arm-none-eabi/lib/thumb/v6-m/nofp/libc_nano.a(lib_a-reent.o)
 .debug_abbrev  0x0000000000002e40       0x14 /usr/lib/gcc/arm-none-eabi/9.2.1/thumb/v6-m/nofp/libgcc.a(_thumb1_case_uqi.o)
 .debug_abbrev  0x0000000000002e54       0x14 /usr/lib/gcc/arm-none-eabi/9.2.1/thumb/v6-m/nofp/libgcc.a(_thumb1_case_shi.o)
 .debug_abbrev  0x0000000000002e68       0x14 /usr/lib/gcc/arm-none-eabi/9.2.1/thumb/v6-m/nofp/libgcc.a(_udivsi3.o)
 .debug_abbrev  0x0000000000002e7c       0x14 /usr/lib/gcc/arm-none-eabi/9.2.1/thumb/v6-m/nofp/libgcc.a(_divsi3.o)
 .debug_abbrev  0x0000000000002e90       0x14 /usr/lib/gcc/arm-none-eabi/9.2.1/thumb/v6-m/nofp/libgcc.a(_dvmd_tls.o)
 .debug_abbrev  0x0000000000002ea4       0x14 /usr/lib/gcc/arm-none-eabi/9.2.1/thumb/v6-m/nofp/libgcc.a(_arm_cmpdf2.o)
 .debug_abbrev  0x0000000000002eb8      0x13b /usr/lib/gcc/arm-none-eabi/9.2.1/thumb/v6-m/nofp/libgcc.a(_fixunsdfsi.o)
 .debug_abbrev  0x0000000000002ff3      0x18e /usr/lib/gcc/arm-none-eabi/9.2.1/thumb/v6-m/nofp/libgcc.a(adddf3.o)
 .debug_abbrev  0x0000000000003181      0x188 /usr/lib/gcc/arm-none-eabi/9.2.1/thumb/v6-m/nofp/libgcc.a(divdf3.o)
 .debug_abbrev  0x0000000000003309      0x18f /usr/lib/gcc/arm-none-eabi/9.2.1/thumb/v6-m/nofp/libgcc.a(eqdf2.o)
 .debug_abbrev  0x0000000000003498      0x191 /usr/lib/gcc/arm-none-eabi/9.2.1/thumb/v6-m/nofp/libgcc.a(gedf2.o)
 .debug_abbrev  0x0000000000003629      0x191 /usr/lib/gcc/arm-none-eabi/9.2.1/thumb/v6-m/nofp/libgcc.a(ledf2.o)
 .debug_abbrev  0x00000000000037ba      0x18f /usr/lib/gcc/arm-none-eabi/9.2.1/thumb/v6-m/nofp/libgcc.a(muldf3.o)
 .debug_abbrev  0x0000000000003949      0x197 /usr/lib/gcc/arm-none-eabi/9.2.1/thumb/v6-m/nofp/libgcc.a(subdf3.o)
 .debug_abbrev  0x0000000000003ae0      0x16a /usr/lib/gcc/arm-none-eabi/9.2.1/thumb/v6-m/nofp/libgcc.a(unorddf2.o)
 .debug_abbrev  0x0000000000003c4a      0x182 /usr/lib/gcc/arm-none-eabi/9.2.1/thumb/v6-m/nofp/libgcc.a(fixdfsi.o)
 .debug_abbrev  0x0000000000003dcc      0x195 /usr/lib/gcc/arm-none-eabi/9.2.1/thumb/v6-m/nofp/libgcc.a(floatsidf.o)
 .debug_abbrev  0x0000000000003f61       0x14 /usr/lib/gcc/arm-none-eabi/9.2.1/thumb/v6-m/nofp/libgcc.a(_clzsi2.o)
 .debug_abbrev  0x0000000000003f75       0x6a /usr/lib/gcc/arm-none-eabi/9.2.1/../../../arm-none-eabi/lib/thumb/v6-m/nofp/libnosys.a(_exit.o)

.debug_aranges  0x0000000000000000      0x570
 .debug_aranges
                0x0000000000000000       0x20 /usr/lib/gcc/arm-none-eabi/9.2.1/../../../arm-none-eabi/lib/thumb/v6-m/nofp/crt0.o
 .debug_aranges
                0x0000000000000020       0x20 /usr/lib/gcc/arm-none-eabi/9.2.1/../../../arm-none-eabi/lib/thumb/v6-m/nofp/libm.a(lib_a-s_round.o)
 .debug_aranges
                0x0000000000000040       0x20 /usr/lib/gcc/arm-none-eabi/9.2.1/../../../arm-none-eabi/lib/thumb/v6-m/nofp/libm.a(lib_a-w_sqrt.o)
 .debug_aranges
                0x0000000000000060       0x20 /usr/lib/gcc/arm-none-eabi/9.2.1/../../../arm-none-eabi/lib/thumb/v6-m/nofp/libm.a(lib_a-e_sqrt.o)
 .debug_aranges
                0x0000000000000080       0x18 /usr/lib/gcc/arm-none-eabi/9.2.1/../../../arm-none-eabi/lib/thumb/v6-m/nofp/libm.a(lib_a-s_lib_ver.o)
 .debug_aranges
                0x0000000000000098       0x20 /usr/lib/gcc/arm-none-eabi/9.2.1/../../../arm-none-eabi/lib/thumb/v6-m/nofp/libc_nano.a(lib_a-abs.o)
 .debug_aranges
                0x00000000000000b8       0x20 /usr/lib/gcc/arm-none-eabi/9.2.1/../../../arm-none-eabi/lib/thumb/v6-m/nofp/libc_nano.a(lib_a-atexit.o)
 .debug_aranges
                0x00000000000000d8       0x20 /usr/lib/gcc/arm-none-eabi/9.2.1/../../../arm-none-eabi/lib/thumb/v6-m/nofp/libc_nano.a(lib_a-bzero.o)
 .debug_aranges
                0x00000000000000f8       0x20 /usr/lib/gcc/arm-none-eabi/9.2.1/../../../arm-none-eabi/lib/thumb/v6-m/nofp/libc_nano.a(lib_a-errno.o)
 .debug_aranges
                0x0000000000000118       0x20 /usr/lib/gcc/arm-none-eabi/9.2.1/../../../arm-none-eabi/lib/thumb/v6-m/nofp/libc_nano.a(lib_a-exit.o)
 .debug_aranges
                0x0000000000000138       0x20 /usr/lib/gcc/arm-none-eabi/9.2.1/../../../arm-none-eabi/lib/thumb/v6-m/nofp/libc_nano.a(lib_a-fini.o)
 .debug_aranges
                0x0000000000000158       0x18 /usr/lib/gcc/arm-none-eabi/9.2.1/../../../arm-none-eabi/lib/thumb/v6-m/nofp/libc_nano.a(lib_a-impure.o)
 .debug_aranges
                0x0000000000000170       0x20 /usr/lib/gcc/arm-none-eabi/9.2.1/../../../arm-none-eabi/lib/thumb/v6-m/nofp/libc_nano.a(lib_a-init.o)
 .debug_aranges
                0x0000000000000190       0x20 /usr/lib/gcc/arm-none-eabi/9.2.1/../../../arm-none-eabi/lib/thumb/v6-m/nofp/libc_nano.a(lib_a-malloc.o)
 .debug_aranges
                0x00000000000001b0       0x20 /usr/lib/gcc/arm-none-eabi/9.2.1/../../../arm-none-eabi/lib/thumb/v6-m/nofp/libc_nano.a(lib_a-memcpy-stub.o)
 .debug_aranges
                0x00000000000001d0       0x20 /usr/lib/gcc/arm-none-eabi/9.2.1/../../../arm-none-eabi/lib/thumb/v6-m/nofp/libc_nano.a(lib_a-memset.o)
 .debug_aranges
                0x00000000000001f0       0x20 /usr/lib/gcc/arm-none-eabi/9.2.1/../../../arm-none-eabi/lib/thumb/v6-m/nofp/libc_nano.a(lib_a-nano-freer.o)
 .debug_aranges
                0x0000000000000210       0x20 /usr/lib/gcc/arm-none-eabi/9.2.1/../../../arm-none-eabi/lib/thumb/v6-m/nofp/libc_nano.a(lib_a-nano-mallocr.o)
 .debug_aranges
                0x0000000000000230       0x20 /usr/lib/gcc/arm-none-eabi/9.2.1/../../../arm-none-eabi/lib/thumb/v6-m/nofp/libc_nano.a(lib_a-sbrkr.o)
 .debug_aranges
                0x0000000000000250       0x20 /usr/lib/gcc/arm-none-eabi/9.2.1/../../../arm-none-eabi/lib/thumb/v6-m/nofp/libc_nano.a(lib_a-strcpy.o)
 .debug_aranges
                0x0000000000000270       0x20 /usr/lib/gcc/arm-none-eabi/9.2.1/../../../arm-none-eabi/lib/thumb/v6-m/nofp/libc_nano.a(lib_a-strlen-stub.o)
 .debug_aranges
                0x0000000000000290       0x20 /usr/lib/gcc/arm-none-eabi/9.2.1/../../../arm-none-eabi/lib/thumb/v6-m/nofp/libc_nano.a(lib_a-__atexit.o)
 .debug_aranges
                0x00000000000002b0       0x20 /usr/lib/gcc/arm-none-eabi/9.2.1/../../../arm-none-eabi/lib/thumb/v6-m/nofp/libc_nano.a(lib_a-__call_atexit.o)
 .debug_aranges
                0x00000000000002d0       0x20 /usr/lib/gcc/arm-none-eabi/9.2.1/../../../arm-none-eabi/lib/thumb/v6-m/nofp/libc_nano.a(lib_a-mlock.o)
 .debug_aranges
                0x00000000000002f0       0x20 /usr/lib/gcc/arm-none-eabi/9.2.1/../../../arm-none-eabi/lib/thumb/v6-m/nofp/libc_nano.a(lib_a-reent.o)
 .debug_aranges
                0x0000000000000310       0x20 /usr/lib/gcc/arm-none-eabi/9.2.1/thumb/v6-m/nofp/libgcc.a(_thumb1_case_uqi.o)
 .debug_aranges
                0x0000000000000330       0x20 /usr/lib/gcc/arm-none-eabi/9.2.1/thumb/v6-m/nofp/libgcc.a(_thumb1_case_shi.o)
 .debug_aranges
                0x0000000000000350       0x20 /usr/lib/gcc/arm-none-eabi/9.2.1/thumb/v6-m/nofp/libgcc.a(_udivsi3.o)
 .debug_aranges
                0x0000000000000370       0x20 /usr/lib/gcc/arm-none-eabi/9.2.1/thumb/v6-m/nofp/libgcc.a(_divsi3.o)
 .debug_aranges
                0x0000000000000390       0x20 /usr/lib/gcc/arm-none-eabi/9.2.1/thumb/v6-m/nofp/libgcc.a(_dvmd_tls.o)
 .debug_aranges
                0x00000000000003b0       0x20 /usr/lib/gcc/arm-none-eabi/9.2.1/thumb/v6-m/nofp/libgcc.a(_arm_cmpdf2.o)
 .debug_aranges
                0x00000000000003d0       0x20 /usr/lib/gcc/arm-none-eabi/9.2.1/thumb/v6-m/nofp/libgcc.a(_fixunsdfsi.o)
 .debug_aranges
                0x00000000000003f0       0x20 /usr/lib/gcc/arm-none-eabi/9.2.1/thumb/v6-m/nofp/libgcc.a(adddf3.o)
 .debug_aranges
                0x0000000000000410       0x20 /usr/lib/gcc/arm-none-eabi/9.2.1/thumb/v6-m/nofp/libgcc.a(divdf3.o)
 .debug_aranges
                0x0000000000000430       0x20 /usr/lib/gcc/arm-none-eabi/9.2.1/thumb/v6-m/nofp/libgcc.a(eqdf2.o)
 .debug_aranges
                0x0000000000000450       0x20 /usr/lib/gcc/arm-none-eabi/9.2.1/thumb/v6-m/nofp/libgcc.a(gedf2.o)
 .debug_aranges
                0x0000000000000470       0x20 /usr/lib/gcc/arm-none-eabi/9.2.1/thumb/v6-m/nofp/libgcc.a(ledf2.o)
 .debug_aranges
                0x0000000000000490       0x20 /usr/lib/gcc/arm-none-eabi/9.2.1/thumb/v6-m/nofp/libgcc.a(muldf3.o)
 .debug_aranges
                0x00000000000004b0       0x20 /usr/lib/gcc/arm-none-eabi/9.2.1/thumb/v6-m/nofp/libgcc.a(subdf3.o)
 .debug_aranges
                0x00000000000004d0       0x20 /usr/lib/gcc/arm-none-eabi/9.2.1/thumb/v6-m/nofp/libgcc.a(unorddf2.o)
 .debug_aranges
                0x00000000000004f0       0x20 /usr/lib/gcc/arm-none-eabi/9.2.1/thumb/v6-m/nofp/libgcc.a(fixdfsi.o)
 .debug_aranges
                0x0000000000000510       0x20 /usr/lib/gcc/arm-none-eabi/9.2.1/thumb/v6-m/nofp/libgcc.a(floatsidf.o)
 .debug_aranges
                0x0000000000000530       0x20 /usr/lib/gcc/arm-none-eabi/9.2.1/thumb/v6-m/nofp/libgcc.a(_clzsi2.o)
 .debug_aranges
                0x0000000000000550       0x20 /usr/lib/gcc/arm-none-eabi/9.2.1/../../../arm-none-eabi/lib/thumb/v6-m/nofp/libnosys.a(_exit.o)

.debug_str      0x0000000000000000     0x2c97
 .debug_str     0x0000000000000000       0x94 /usr/lib/gcc/arm-none-eabi/9.2.1/../../../arm-none-eabi/lib/thumb/v6-m/nofp/crt0.o
 .debug_str     0x0000000000000094      0x589 /usr/lib/gcc/arm-none-eabi/9.2.1/../../../arm-none-eabi/lib/thumb/v6-m/nofp/libm.a(lib_a-s_round.o)
                                        0x651 (size before relaxing)
 .debug_str     0x000000000000061d       0xb7 /usr/lib/gcc/arm-none-eabi/9.2.1/../../../arm-none-eabi/lib/thumb/v6-m/nofp/libm.a(lib_a-w_sqrt.o)
                                        0x609 (size before relaxing)
 .debug_str     0x00000000000006d4       0x3c /usr/lib/gcc/arm-none-eabi/9.2.1/../../../arm-none-eabi/lib/thumb/v6-m/nofp/libm.a(lib_a-e_sqrt.o)
                                        0x642 (size before relaxing)
 .debug_str     0x0000000000000710      0x12b /usr/lib/gcc/arm-none-eabi/9.2.1/../../../arm-none-eabi/lib/thumb/v6-m/nofp/libm.a(lib_a-s_lib_ver.o)
                                        0x5ea (size before relaxing)
 .debug_str     0x000000000000083b      0x112 /usr/lib/gcc/arm-none-eabi/9.2.1/../../../arm-none-eabi/lib/thumb/v6-m/nofp/libc_nano.a(lib_a-abs.o)
                                        0x5d8 (size before relaxing)
 .debug_str     0x000000000000094d       0x78 /usr/lib/gcc/arm-none-eabi/9.2.1/../../../arm-none-eabi/lib/thumb/v6-m/nofp/libc_nano.a(lib_a-atexit.o)
                                        0x626 (size before relaxing)
 .debug_str     0x00000000000009c5       0xa5 /usr/lib/gcc/arm-none-eabi/9.2.1/../../../arm-none-eabi/lib/thumb/v6-m/nofp/libc_nano.a(lib_a-bzero.o)
                                        0x5eb (size before relaxing)
 .debug_str     0x0000000000000a6a       0x8f /usr/lib/gcc/arm-none-eabi/9.2.1/../../../arm-none-eabi/lib/thumb/v6-m/nofp/libc_nano.a(lib_a-errno.o)
                                        0x5ed (size before relaxing)
 .debug_str     0x0000000000000af9       0x6f /usr/lib/gcc/arm-none-eabi/9.2.1/../../../arm-none-eabi/lib/thumb/v6-m/nofp/libc_nano.a(lib_a-exit.o)
                                        0x627 (size before relaxing)
 .debug_str     0x0000000000000b68       0xc8 /usr/lib/gcc/arm-none-eabi/9.2.1/../../../arm-none-eabi/lib/thumb/v6-m/nofp/libc_nano.a(lib_a-fini.o)
                                        0x1f8 (size before relaxing)
 .debug_str     0x0000000000000c30       0x9c /usr/lib/gcc/arm-none-eabi/9.2.1/../../../arm-none-eabi/lib/thumb/v6-m/nofp/libc_nano.a(lib_a-impure.o)
                                        0x5db (size before relaxing)
 .debug_str     0x0000000000000ccc       0x96 /usr/lib/gcc/arm-none-eabi/9.2.1/../../../arm-none-eabi/lib/thumb/v6-m/nofp/libc_nano.a(lib_a-init.o)
                                        0x222 (size before relaxing)
 .debug_str     0x0000000000000d62       0x52 /usr/lib/gcc/arm-none-eabi/9.2.1/../../../arm-none-eabi/lib/thumb/v6-m/nofp/libc_nano.a(lib_a-malloc.o)
                                        0x60c (size before relaxing)
 .debug_str     0x0000000000000db4      0x33d /usr/lib/gcc/arm-none-eabi/9.2.1/../../../arm-none-eabi/lib/thumb/v6-m/nofp/libc_nano.a(lib_a-memcpy-stub.o)
                                        0x92d (size before relaxing)
 .debug_str     0x00000000000010f1       0x48 /usr/lib/gcc/arm-none-eabi/9.2.1/../../../arm-none-eabi/lib/thumb/v6-m/nofp/libc_nano.a(lib_a-memset.o)
                                        0x908 (size before relaxing)
 .debug_str     0x0000000000001139      0x120 /usr/lib/gcc/arm-none-eabi/9.2.1/../../../arm-none-eabi/lib/thumb/v6-m/nofp/libc_nano.a(lib_a-nano-freer.o)
                                        0x70b (size before relaxing)
 .debug_str     0x0000000000001259       0x32 /usr/lib/gcc/arm-none-eabi/9.2.1/../../../arm-none-eabi/lib/thumb/v6-m/nofp/libc_nano.a(lib_a-nano-mallocr.o)
                                        0x722 (size before relaxing)
 .debug_str     0x000000000000128b       0x47 /usr/lib/gcc/arm-none-eabi/9.2.1/../../../arm-none-eabi/lib/thumb/v6-m/nofp/libc_nano.a(lib_a-sbrkr.o)
                                        0x61e (size before relaxing)
 .debug_str     0x00000000000012d2       0x43 /usr/lib/gcc/arm-none-eabi/9.2.1/../../../arm-none-eabi/lib/thumb/v6-m/nofp/libc_nano.a(lib_a-strcpy.o)
                                        0x5e5 (size before relaxing)
 .debug_str     0x0000000000001315       0x48 /usr/lib/gcc/arm-none-eabi/9.2.1/../../../arm-none-eabi/lib/thumb/v6-m/nofp/libc_nano.a(lib_a-strlen-stub.o)
                                        0x604 (size before relaxing)
 .debug_str     0x000000000000135d       0x7d /usr/lib/gcc/arm-none-eabi/9.2.1/../../../arm-none-eabi/lib/thumb/v6-m/nofp/libc_nano.a(lib_a-__atexit.o)
                                        0x679 (size before relaxing)
 .debug_str     0x00000000000013da       0x49 /usr/lib/gcc/arm-none-eabi/9.2.1/../../../arm-none-eabi/lib/thumb/v6-m/nofp/libc_nano.a(lib_a-__call_atexit.o)
                                        0x624 (size before relaxing)
 .debug_str     0x0000000000001423       0x4c /usr/lib/gcc/arm-none-eabi/9.2.1/../../../arm-none-eabi/lib/thumb/v6-m/nofp/libc_nano.a(lib_a-mlock.o)
                                        0x607 (size before relaxing)
 .debug_str     0x000000000000146f       0x5e /usr/lib/gcc/arm-none-eabi/9.2.1/../../../arm-none-eabi/lib/thumb/v6-m/nofp/libc_nano.a(lib_a-reent.o)
                                        0x617 (size before relaxing)
 .debug_str     0x00000000000014cd       0x97 /usr/lib/gcc/arm-none-eabi/9.2.1/thumb/v6-m/nofp/libgcc.a(_thumb1_case_uqi.o)
                                         0xa3 (size before relaxing)
 .debug_str     0x0000000000001564       0xa3 /usr/lib/gcc/arm-none-eabi/9.2.1/thumb/v6-m/nofp/libgcc.a(_thumb1_case_shi.o)
 .debug_str     0x0000000000001564       0xa3 /usr/lib/gcc/arm-none-eabi/9.2.1/thumb/v6-m/nofp/libgcc.a(_udivsi3.o)
 .debug_str     0x0000000000001564       0xa3 /usr/lib/gcc/arm-none-eabi/9.2.1/thumb/v6-m/nofp/libgcc.a(_divsi3.o)
 .debug_str     0x0000000000001564       0xa3 /usr/lib/gcc/arm-none-eabi/9.2.1/thumb/v6-m/nofp/libgcc.a(_dvmd_tls.o)
 .debug_str     0x0000000000001564       0x30 /usr/lib/gcc/arm-none-eabi/9.2.1/thumb/v6-m/nofp/libgcc.a(_arm_cmpdf2.o)
                                         0xa3 (size before relaxing)
 .debug_str     0x0000000000001594     0x1097 /usr/lib/gcc/arm-none-eabi/9.2.1/thumb/v6-m/nofp/libgcc.a(_fixunsdfsi.o)
                                       0x1191 (size before relaxing)
 .debug_str     0x000000000000262b      0x15f /usr/lib/gcc/arm-none-eabi/9.2.1/thumb/v6-m/nofp/libgcc.a(adddf3.o)
                                        0x333 (size before relaxing)
 .debug_str     0x000000000000278a      0x1be /usr/lib/gcc/arm-none-eabi/9.2.1/thumb/v6-m/nofp/libgcc.a(divdf3.o)
                                        0x3f5 (size before relaxing)
 .debug_str     0x0000000000002948       0x2f /usr/lib/gcc/arm-none-eabi/9.2.1/thumb/v6-m/nofp/libgcc.a(eqdf2.o)
                                        0x249 (size before relaxing)
 .debug_str     0x0000000000002977       0x34 /usr/lib/gcc/arm-none-eabi/9.2.1/thumb/v6-m/nofp/libgcc.a(gedf2.o)
                                        0x26d (size before relaxing)
 .debug_str     0x00000000000029ab       0x10 /usr/lib/gcc/arm-none-eabi/9.2.1/thumb/v6-m/nofp/libgcc.a(ledf2.o)
                                        0x26d (size before relaxing)
 .debug_str     0x00000000000029bb      0x13b /usr/lib/gcc/arm-none-eabi/9.2.1/thumb/v6-m/nofp/libgcc.a(muldf3.o)
                                        0x44d (size before relaxing)
 .debug_str     0x0000000000002af6       0x16 /usr/lib/gcc/arm-none-eabi/9.2.1/thumb/v6-m/nofp/libgcc.a(subdf3.o)
                                        0x333 (size before relaxing)
 .debug_str     0x0000000000002b0c       0x1a /usr/lib/gcc/arm-none-eabi/9.2.1/thumb/v6-m/nofp/libgcc.a(unorddf2.o)
                                        0x253 (size before relaxing)
 .debug_str     0x0000000000002b26       0x2a /usr/lib/gcc/arm-none-eabi/9.2.1/thumb/v6-m/nofp/libgcc.a(fixdfsi.o)
                                        0x249 (size before relaxing)
 .debug_str     0x0000000000002b50       0x45 /usr/lib/gcc/arm-none-eabi/9.2.1/thumb/v6-m/nofp/libgcc.a(floatsidf.o)
                                        0x2e1 (size before relaxing)
 .debug_str     0x0000000000002b95       0xa3 /usr/lib/gcc/arm-none-eabi/9.2.1/thumb/v6-m/nofp/libgcc.a(_clzsi2.o)
 .debug_str     0x0000000000002b95      0x102 /usr/lib/gcc/arm-none-eabi/9.2.1/../../../arm-none-eabi/lib/thumb/v6-m/nofp/libnosys.a(_exit.o)
                                        0x198 (size before relaxing)

.debug_loc      0x0000000000000000     0x8ee8
 .debug_loc     0x0000000000000000      0x2df /usr/lib/gcc/arm-none-eabi/9.2.1/../../../arm-none-eabi/lib/thumb/v6-m/nofp/libm.a(lib_a-s_round.o)
 .debug_loc     0x00000000000002df       0x58 /usr/lib/gcc/arm-none-eabi/9.2.1/../../../arm-none-eabi/lib/thumb/v6-m/nofp/libm.a(lib_a-w_sqrt.o)
 .debug_loc     0x0000000000000337      0x575 /usr/lib/gcc/arm-none-eabi/9.2.1/../../../arm-none-eabi/lib/thumb/v6-m/nofp/libm.a(lib_a-e_sqrt.o)
 .debug_loc     0x00000000000008ac       0x25 /usr/lib/gcc/arm-none-eabi/9.2.1/../../../arm-none-eabi/lib/thumb/v6-m/nofp/libc_nano.a(lib_a-abs.o)
 .debug_loc     0x00000000000008d1       0x32 /usr/lib/gcc/arm-none-eabi/9.2.1/../../../arm-none-eabi/lib/thumb/v6-m/nofp/libc_nano.a(lib_a-atexit.o)
 .debug_loc     0x0000000000000903       0x57 /usr/lib/gcc/arm-none-eabi/9.2.1/../../../arm-none-eabi/lib/thumb/v6-m/nofp/libc_nano.a(lib_a-bzero.o)
 .debug_loc     0x000000000000095a       0x22 /usr/lib/gcc/arm-none-eabi/9.2.1/../../../arm-none-eabi/lib/thumb/v6-m/nofp/libc_nano.a(lib_a-exit.o)
 .debug_loc     0x000000000000097c       0x46 /usr/lib/gcc/arm-none-eabi/9.2.1/../../../arm-none-eabi/lib/thumb/v6-m/nofp/libc_nano.a(lib_a-fini.o)
 .debug_loc     0x00000000000009c2       0x98 /usr/lib/gcc/arm-none-eabi/9.2.1/../../../arm-none-eabi/lib/thumb/v6-m/nofp/libc_nano.a(lib_a-init.o)
 .debug_loc     0x0000000000000a5a       0x64 /usr/lib/gcc/arm-none-eabi/9.2.1/../../../arm-none-eabi/lib/thumb/v6-m/nofp/libc_nano.a(lib_a-malloc.o)
 .debug_loc     0x0000000000000abe      0x481 /usr/lib/gcc/arm-none-eabi/9.2.1/../../../arm-none-eabi/lib/thumb/v6-m/nofp/libc_nano.a(lib_a-memcpy-stub.o)
 .debug_loc     0x0000000000000f3f      0x2df /usr/lib/gcc/arm-none-eabi/9.2.1/../../../arm-none-eabi/lib/thumb/v6-m/nofp/libc_nano.a(lib_a-memset.o)
 .debug_loc     0x000000000000121e      0x1ca /usr/lib/gcc/arm-none-eabi/9.2.1/../../../arm-none-eabi/lib/thumb/v6-m/nofp/libc_nano.a(lib_a-nano-freer.o)
 .debug_loc     0x00000000000013e8      0x2cc /usr/lib/gcc/arm-none-eabi/9.2.1/../../../arm-none-eabi/lib/thumb/v6-m/nofp/libc_nano.a(lib_a-nano-mallocr.o)
 .debug_loc     0x00000000000016b4       0x79 /usr/lib/gcc/arm-none-eabi/9.2.1/../../../arm-none-eabi/lib/thumb/v6-m/nofp/libc_nano.a(lib_a-sbrkr.o)
 .debug_loc     0x000000000000172d       0x25 /usr/lib/gcc/arm-none-eabi/9.2.1/../../../arm-none-eabi/lib/thumb/v6-m/nofp/libc_nano.a(lib_a-strcpy.o)
 .debug_loc     0x0000000000001752       0xa3 /usr/lib/gcc/arm-none-eabi/9.2.1/../../../arm-none-eabi/lib/thumb/v6-m/nofp/libc_nano.a(lib_a-strlen-stub.o)
 .debug_loc     0x00000000000017f5      0x1db /usr/lib/gcc/arm-none-eabi/9.2.1/../../../arm-none-eabi/lib/thumb/v6-m/nofp/libc_nano.a(lib_a-__atexit.o)
 .debug_loc     0x00000000000019d0      0x165 /usr/lib/gcc/arm-none-eabi/9.2.1/../../../arm-none-eabi/lib/thumb/v6-m/nofp/libc_nano.a(lib_a-__call_atexit.o)
 .debug_loc     0x0000000000001b35       0xf4 /usr/lib/gcc/arm-none-eabi/9.2.1/../../../arm-none-eabi/lib/thumb/v6-m/nofp/libc_nano.a(lib_a-reent.o)
 .debug_loc     0x0000000000001c29       0x2c /usr/lib/gcc/arm-none-eabi/9.2.1/thumb/v6-m/nofp/libgcc.a(_fixunsdfsi.o)
 .debug_loc     0x0000000000001c55     0x1822 /usr/lib/gcc/arm-none-eabi/9.2.1/thumb/v6-m/nofp/libgcc.a(adddf3.o)
 .debug_loc     0x0000000000003477     0x2061 /usr/lib/gcc/arm-none-eabi/9.2.1/thumb/v6-m/nofp/libgcc.a(divdf3.o)
 .debug_loc     0x00000000000054d8      0x165 /usr/lib/gcc/arm-none-eabi/9.2.1/thumb/v6-m/nofp/libgcc.a(eqdf2.o)
 .debug_loc     0x000000000000563d      0x306 /usr/lib/gcc/arm-none-eabi/9.2.1/thumb/v6-m/nofp/libgcc.a(gedf2.o)
 .debug_loc     0x0000000000005943      0x312 /usr/lib/gcc/arm-none-eabi/9.2.1/thumb/v6-m/nofp/libgcc.a(ledf2.o)
 .debug_loc     0x0000000000005c55     0x1242 /usr/lib/gcc/arm-none-eabi/9.2.1/thumb/v6-m/nofp/libgcc.a(muldf3.o)
 .debug_loc     0x0000000000006e97     0x1bec /usr/lib/gcc/arm-none-eabi/9.2.1/thumb/v6-m/nofp/libgcc.a(subdf3.o)
 .debug_loc     0x0000000000008a83       0xcb /usr/lib/gcc/arm-none-eabi/9.2.1/thumb/v6-m/nofp/libgcc.a(unorddf2.o)
 .debug_loc     0x0000000000008b4e      0x13d /usr/lib/gcc/arm-none-eabi/9.2.1/thumb/v6-m/nofp/libgcc.a(fixdfsi.o)
 .debug_loc     0x0000000000008c8b      0x248 /usr/lib/gcc/arm-none-eabi/9.2.1/thumb/v6-m/nofp/libgcc.a(floatsidf.o)
 .debug_loc     0x0000000000008ed3       0x15 /usr/lib/gcc/arm-none-eabi/9.2.1/../../../arm-none-eabi/lib/thumb/v6-m/nofp/libnosys.a(_exit.o)

.debug_ranges   0x0000000000000000      0xb30
 .debug_ranges  0x0000000000000000       0x70 /usr/lib/gcc/arm-none-eabi/9.2.1/../../../arm-none-eabi/lib/thumb/v6-m/nofp/libm.a(lib_a-s_round.o)
 .debug_ranges  0x0000000000000070       0x38 /usr/lib/gcc/arm-none-eabi/9.2.1/../../../arm-none-eabi/lib/thumb/v6-m/nofp/libm.a(lib_a-e_sqrt.o)
 .debug_ranges  0x00000000000000a8       0x18 /usr/lib/gcc/arm-none-eabi/9.2.1/../../../arm-none-eabi/lib/thumb/v6-m/nofp/libc_nano.a(lib_a-nano-freer.o)
 .debug_ranges  0x00000000000000c0       0x38 /usr/lib/gcc/arm-none-eabi/9.2.1/../../../arm-none-eabi/lib/thumb/v6-m/nofp/libc_nano.a(lib_a-nano-mallocr.o)
 .debug_ranges  0x00000000000000f8       0x10 /usr/lib/gcc/arm-none-eabi/9.2.1/../../../arm-none-eabi/lib/thumb/v6-m/nofp/libc_nano.a(lib_a-strcpy.o)
 .debug_ranges  0x0000000000000108       0x20 /usr/lib/gcc/arm-none-eabi/9.2.1/../../../arm-none-eabi/lib/thumb/v6-m/nofp/libc_nano.a(lib_a-__call_atexit.o)
 .debug_ranges  0x0000000000000128      0x248 /usr/lib/gcc/arm-none-eabi/9.2.1/thumb/v6-m/nofp/libgcc.a(adddf3.o)
 .debug_ranges  0x0000000000000370      0x1f0 /usr/lib/gcc/arm-none-eabi/9.2.1/thumb/v6-m/nofp/libgcc.a(divdf3.o)
 .debug_ranges  0x0000000000000560       0x48 /usr/lib/gcc/arm-none-eabi/9.2.1/thumb/v6-m/nofp/libgcc.a(eqdf2.o)
 .debug_ranges  0x00000000000005a8       0x68 /usr/lib/gcc/arm-none-eabi/9.2.1/thumb/v6-m/nofp/libgcc.a(gedf2.o)
 .debug_ranges  0x0000000000000610       0x60 /usr/lib/gcc/arm-none-eabi/9.2.1/thumb/v6-m/nofp/libgcc.a(ledf2.o)
 .debug_ranges  0x0000000000000670      0x1d0 /usr/lib/gcc/arm-none-eabi/9.2.1/thumb/v6-m/nofp/libgcc.a(muldf3.o)
 .debug_ranges  0x0000000000000840      0x248 /usr/lib/gcc/arm-none-eabi/9.2.1/thumb/v6-m/nofp/libgcc.a(subdf3.o)
 .debug_ranges  0x0000000000000a88       0x48 /usr/lib/gcc/arm-none-eabi/9.2.1/thumb/v6-m/nofp/libgcc.a(unorddf2.o)
 .debug_ranges  0x0000000000000ad0       0x28 /usr/lib/gcc/arm-none-eabi/9.2.1/thumb/v6-m/nofp/libgcc.a(fixdfsi.o)
 .debug_ranges  0x0000000000000af8       0x38 /usr/lib/gcc/arm-none-eabi/9.2.1/thumb/v6-m/nofp/libgcc.a(floatsidf.o)

.debug_frame    0x0000000000000000      0x6b0
 .debug_frame   0x0000000000000000       0x30 /usr/lib/gcc/arm-none-eabi/9.2.1/../../../arm-none-eabi/lib/thumb/v6-m/nofp/libm.a(lib_a-s_round.o)
 .debug_frame   0x0000000000000030       0x30 /usr/lib/gcc/arm-none-eabi/9.2.1/../../../arm-none-eabi/lib/thumb/v6-m/nofp/libm.a(lib_a-w_sqrt.o)
 .debug_frame   0x0000000000000060       0x38 /usr/lib/gcc/arm-none-eabi/9.2.1/../../../arm-none-eabi/lib/thumb/v6-m/nofp/libm.a(lib_a-e_sqrt.o)
 .debug_frame   0x0000000000000098       0x20 /usr/lib/gcc/arm-none-eabi/9.2.1/../../../arm-none-eabi/lib/thumb/v6-m/nofp/libc_nano.a(lib_a-abs.o)
 .debug_frame   0x00000000000000b8       0x28 /usr/lib/gcc/arm-none-eabi/9.2.1/../../../arm-none-eabi/lib/thumb/v6-m/nofp/libc_nano.a(lib_a-atexit.o)
 .debug_frame   0x00000000000000e0       0x28 /usr/lib/gcc/arm-none-eabi/9.2.1/../../../arm-none-eabi/lib/thumb/v6-m/nofp/libc_nano.a(lib_a-bzero.o)
 .debug_frame   0x0000000000000108       0x20 /usr/lib/gcc/arm-none-eabi/9.2.1/../../../arm-none-eabi/lib/thumb/v6-m/nofp/libc_nano.a(lib_a-errno.o)
 .debug_frame   0x0000000000000128       0x28 /usr/lib/gcc/arm-none-eabi/9.2.1/../../../arm-none-eabi/lib/thumb/v6-m/nofp/libc_nano.a(lib_a-exit.o)
 .debug_frame   0x0000000000000150       0x2c /usr/lib/gcc/arm-none-eabi/9.2.1/../../../arm-none-eabi/lib/thumb/v6-m/nofp/libc_nano.a(lib_a-fini.o)
 .debug_frame   0x000000000000017c       0x2c /usr/lib/gcc/arm-none-eabi/9.2.1/../../../arm-none-eabi/lib/thumb/v6-m/nofp/libc_nano.a(lib_a-init.o)
 .debug_frame   0x00000000000001a8       0x40 /usr/lib/gcc/arm-none-eabi/9.2.1/../../../arm-none-eabi/lib/thumb/v6-m/nofp/libc_nano.a(lib_a-malloc.o)
 .debug_frame   0x00000000000001e8       0x34 /usr/lib/gcc/arm-none-eabi/9.2.1/../../../arm-none-eabi/lib/thumb/v6-m/nofp/libc_nano.a(lib_a-memcpy-stub.o)
 .debug_frame   0x000000000000021c       0x30 /usr/lib/gcc/arm-none-eabi/9.2.1/../../../arm-none-eabi/lib/thumb/v6-m/nofp/libc_nano.a(lib_a-memset.o)
 .debug_frame   0x000000000000024c       0x2c /usr/lib/gcc/arm-none-eabi/9.2.1/../../../arm-none-eabi/lib/thumb/v6-m/nofp/libc_nano.a(lib_a-nano-freer.o)
 .debug_frame   0x0000000000000278       0x30 /usr/lib/gcc/arm-none-eabi/9.2.1/../../../arm-none-eabi/lib/thumb/v6-m/nofp/libc_nano.a(lib_a-nano-mallocr.o)
 .debug_frame   0x00000000000002a8       0x2c /usr/lib/gcc/arm-none-eabi/9.2.1/../../../arm-none-eabi/lib/thumb/v6-m/nofp/libc_nano.a(lib_a-sbrkr.o)
 .debug_frame   0x00000000000002d4       0x20 /usr/lib/gcc/arm-none-eabi/9.2.1/../../../arm-none-eabi/lib/thumb/v6-m/nofp/libc_nano.a(lib_a-strcpy.o)
 .debug_frame   0x00000000000002f4       0x28 /usr/lib/gcc/arm-none-eabi/9.2.1/../../../arm-none-eabi/lib/thumb/v6-m/nofp/libc_nano.a(lib_a-strlen-stub.o)
 .debug_frame   0x000000000000031c       0x3c /usr/lib/gcc/arm-none-eabi/9.2.1/../../../arm-none-eabi/lib/thumb/v6-m/nofp/libc_nano.a(lib_a-__atexit.o)
 .debug_frame   0x0000000000000358       0x3c /usr/lib/gcc/arm-none-eabi/9.2.1/../../../arm-none-eabi/lib/thumb/v6-m/nofp/libc_nano.a(lib_a-__call_atexit.o)
 .debug_frame   0x0000000000000394       0x30 /usr/lib/gcc/arm-none-eabi/9.2.1/../../../arm-none-eabi/lib/thumb/v6-m/nofp/libc_nano.a(lib_a-mlock.o)
 .debug_frame   0x00000000000003c4       0x48 /usr/lib/gcc/arm-none-eabi/9.2.1/../../../arm-none-eabi/lib/thumb/v6-m/nofp/libc_nano.a(lib_a-reent.o)
 .debug_frame   0x000000000000040c       0x20 /usr/lib/gcc/arm-none-eabi/9.2.1/thumb/v6-m/nofp/libgcc.a(_udivsi3.o)
 .debug_frame   0x000000000000042c       0x20 /usr/lib/gcc/arm-none-eabi/9.2.1/thumb/v6-m/nofp/libgcc.a(_divsi3.o)
 .debug_frame   0x000000000000044c       0x2c /usr/lib/gcc/arm-none-eabi/9.2.1/thumb/v6-m/nofp/libgcc.a(_fixunsdfsi.o)
 .debug_frame   0x0000000000000478       0x38 /usr/lib/gcc/arm-none-eabi/9.2.1/thumb/v6-m/nofp/libgcc.a(adddf3.o)
 .debug_frame   0x00000000000004b0       0x3c /usr/lib/gcc/arm-none-eabi/9.2.1/thumb/v6-m/nofp/libgcc.a(divdf3.o)
 .debug_frame   0x00000000000004ec       0x38 /usr/lib/gcc/arm-none-eabi/9.2.1/thumb/v6-m/nofp/libgcc.a(eqdf2.o)
 .debug_frame   0x0000000000000524       0x38 /usr/lib/gcc/arm-none-eabi/9.2.1/thumb/v6-m/nofp/libgcc.a(gedf2.o)
 .debug_frame   0x000000000000055c       0x38 /usr/lib/gcc/arm-none-eabi/9.2.1/thumb/v6-m/nofp/libgcc.a(ledf2.o)
 .debug_frame   0x0000000000000594       0x3c /usr/lib/gcc/arm-none-eabi/9.2.1/thumb/v6-m/nofp/libgcc.a(muldf3.o)
 .debug_frame   0x00000000000005d0       0x3c /usr/lib/gcc/arm-none-eabi/9.2.1/thumb/v6-m/nofp/libgcc.a(subdf3.o)
 .debug_frame   0x000000000000060c       0x2c /usr/lib/gcc/arm-none-eabi/9.2.1/thumb/v6-m/nofp/libgcc.a(unorddf2.o)
 .debug_frame   0x0000000000000638       0x2c /usr/lib/gcc/arm-none-eabi/9.2.1/thumb/v6-m/nofp/libgcc.a(fixdfsi.o)
 .debug_frame   0x0000000000000664       0x2c /usr/lib/gcc/arm-none-eabi/9.2.1/thumb/v6-m/nofp/libgcc.a(floatsidf.o)
 .debug_frame   0x0000000000000690       0x20 /usr/lib/gcc/arm-none-eabi/9.2.1/../../../arm-none-eabi/lib/thumb/v6-m/nofp/libnosys.a(_exit.o)
